SF:/Users/rahul/code/rust/baml/engine/baml-lib/baml-types/src/baml_value.rs
FN:646,_RINvMs5_NtCs3JxpW9MMjKx_10baml_types10baml_valueINtB6_17BamlValueWithMetapE14map_meta_ownedppEB8_
FN:617,_RINvMs5_NtCs3JxpW9MMjKx_10baml_types10baml_valueINtB6_17BamlValueWithMetapE8map_metappEB8_
FN:682,_RINvMs5_NtCs3JxpW9MMjKx_10baml_types10baml_valueINtB6_17BamlValueWithMetapE8zip_metapEB8_
FN:935,_RINvNtCs3JxpW9MMjKx_10baml_types10baml_value10add_checkspEB4_
FN:917,_RINvNtCs3JxpW9MMjKx_10baml_types10baml_value21serialize_with_checksppEB4_
FN:31,_RINvXNtCs3JxpW9MMjKx_10baml_types10baml_valueNtB3_9BamlValueNtNtCs63OnOD5ygOS_5serde3ser9Serialize9serializepEB5_
FN:146,_RINvXs1_NtCs3JxpW9MMjKx_10baml_types10baml_valueNtB6_9BamlValueNtNtCs63OnOD5ygOS_5serde2de11Deserialize11deserializepEB8_
FN:282,_RINvXs2_NtCs3JxpW9MMjKx_10baml_types10baml_valueNtB6_16BamlValueVisitorNtNtCs63OnOD5ygOS_5serde2de7Visitor10visit_boolpEB8_
FN:240,_RINvXs2_NtCs3JxpW9MMjKx_10baml_types10baml_valueNtB6_16BamlValueVisitorNtNtCs63OnOD5ygOS_5serde2de7Visitor10visit_charpEB8_
FN:268,_RINvXs2_NtCs3JxpW9MMjKx_10baml_types10baml_valueNtB6_16BamlValueVisitorNtNtCs63OnOD5ygOS_5serde2de7Visitor10visit_i128pEB8_
FN:289,_RINvXs2_NtCs3JxpW9MMjKx_10baml_types10baml_valueNtB6_16BamlValueVisitorNtNtCs63OnOD5ygOS_5serde2de7Visitor10visit_nonepEB8_
FN:296,_RINvXs2_NtCs3JxpW9MMjKx_10baml_types10baml_valueNtB6_16BamlValueVisitorNtNtCs63OnOD5ygOS_5serde2de7Visitor10visit_somepEB8_
FN:275,_RINvXs2_NtCs3JxpW9MMjKx_10baml_types10baml_valueNtB6_16BamlValueVisitorNtNtCs63OnOD5ygOS_5serde2de7Visitor10visit_u128pEB8_
FN:303,_RINvXs2_NtCs3JxpW9MMjKx_10baml_types10baml_valueNtB6_16BamlValueVisitorNtNtCs63OnOD5ygOS_5serde2de7Visitor10visit_unitpEB8_
FN:254,_RINvXs2_NtCs3JxpW9MMjKx_10baml_types10baml_valueNtB6_16BamlValueVisitorNtNtCs63OnOD5ygOS_5serde2de7Visitor11visit_bytespEB8_
FN:247,_RINvXs2_NtCs3JxpW9MMjKx_10baml_types10baml_valueNtB6_16BamlValueVisitorNtNtCs63OnOD5ygOS_5serde2de7Visitor12visit_stringpEB8_
FN:261,_RINvXs2_NtCs3JxpW9MMjKx_10baml_types10baml_valueNtB6_16BamlValueVisitorNtNtCs63OnOD5ygOS_5serde2de7Visitor18visit_borrowed_strpEB8_
FN:170,_RINvXs2_NtCs3JxpW9MMjKx_10baml_types10baml_valueNtB6_16BamlValueVisitorNtNtCs63OnOD5ygOS_5serde2de7Visitor8visit_i8pEB8_
FN:191,_RINvXs2_NtCs3JxpW9MMjKx_10baml_types10baml_valueNtB6_16BamlValueVisitorNtNtCs63OnOD5ygOS_5serde2de7Visitor8visit_u8pEB8_
FN:226,_RINvXs2_NtCs3JxpW9MMjKx_10baml_types10baml_valueNtB6_16BamlValueVisitorNtNtCs63OnOD5ygOS_5serde2de7Visitor9visit_f32pEB8_
FN:233,_RINvXs2_NtCs3JxpW9MMjKx_10baml_types10baml_valueNtB6_16BamlValueVisitorNtNtCs63OnOD5ygOS_5serde2de7Visitor9visit_f64pEB8_
FN:177,_RINvXs2_NtCs3JxpW9MMjKx_10baml_types10baml_valueNtB6_16BamlValueVisitorNtNtCs63OnOD5ygOS_5serde2de7Visitor9visit_i16pEB8_
FN:184,_RINvXs2_NtCs3JxpW9MMjKx_10baml_types10baml_valueNtB6_16BamlValueVisitorNtNtCs63OnOD5ygOS_5serde2de7Visitor9visit_i32pEB8_
FN:219,_RINvXs2_NtCs3JxpW9MMjKx_10baml_types10baml_valueNtB6_16BamlValueVisitorNtNtCs63OnOD5ygOS_5serde2de7Visitor9visit_i64pEB8_
FN:321,_RINvXs2_NtCs3JxpW9MMjKx_10baml_types10baml_valueNtB6_16BamlValueVisitorNtNtCs63OnOD5ygOS_5serde2de7Visitor9visit_mappEB8_
FN:310,_RINvXs2_NtCs3JxpW9MMjKx_10baml_types10baml_valueNtB6_16BamlValueVisitorNtNtCs63OnOD5ygOS_5serde2de7Visitor9visit_seqpEB8_
FN:163,_RINvXs2_NtCs3JxpW9MMjKx_10baml_types10baml_valueNtB6_16BamlValueVisitorNtNtCs63OnOD5ygOS_5serde2de7Visitor9visit_strpEB8_
FN:198,_RINvXs2_NtCs3JxpW9MMjKx_10baml_types10baml_valueNtB6_16BamlValueVisitorNtNtCs63OnOD5ygOS_5serde2de7Visitor9visit_u16pEB8_
FN:205,_RINvXs2_NtCs3JxpW9MMjKx_10baml_types10baml_valueNtB6_16BamlValueVisitorNtNtCs63OnOD5ygOS_5serde2de7Visitor9visit_u32pEB8_
FN:212,_RINvXs2_NtCs3JxpW9MMjKx_10baml_types10baml_valueNtB6_16BamlValueVisitorNtNtCs63OnOD5ygOS_5serde2de7Visitor9visit_u64pEB8_
FN:877,_RINvXsb_NtCs3JxpW9MMjKx_10baml_types10baml_valueINtB6_17BamlValueWithMetaINtNtCs7Lutq36SewB_5alloc3vec3VecNtNtB8_10constraint13ResponseCheckEENtNtCs63OnOD5ygOS_5serde3ser9Serialize9serializepEB8_
FN:657,_RNCINvMs5_NtCs3JxpW9MMjKx_10baml_types10baml_valueINtB8_17BamlValueWithMetapE14map_meta_ownedppE0Ba_
FN:669,_RNCINvMs5_NtCs3JxpW9MMjKx_10baml_types10baml_valueINtB8_17BamlValueWithMetapE14map_meta_ownedppEs0_0Ba_
FN:662,_RNCINvMs5_NtCs3JxpW9MMjKx_10baml_types10baml_valueINtB8_17BamlValueWithMetapE14map_meta_ownedppEs_0Ba_
FN:627,_RNCINvMs5_NtCs3JxpW9MMjKx_10baml_types10baml_valueINtB8_17BamlValueWithMetapE8map_metappE0Ba_
FN:638,_RNCINvMs5_NtCs3JxpW9MMjKx_10baml_types10baml_valueINtB8_17BamlValueWithMetapE8map_metappEs0_0Ba_
FN:631,_RNCINvMs5_NtCs3JxpW9MMjKx_10baml_types10baml_valueINtB8_17BamlValueWithMetapE8map_metappEs_0Ba_
FN:715,_RNCINvMs5_NtCs3JxpW9MMjKx_10baml_types10baml_valueINtB8_17BamlValueWithMetapE8zip_metapE0Ba_
FN:751,_RNCINvMs5_NtCs3JxpW9MMjKx_10baml_types10baml_valueINtB8_17BamlValueWithMetapE8zip_metapEs0_0Ba_
FN:764,_RNCINvMs5_NtCs3JxpW9MMjKx_10baml_types10baml_valueINtB8_17BamlValueWithMetapE8zip_metapEs1_0Ba_
FN:724,_RNCINvMs5_NtCs3JxpW9MMjKx_10baml_types10baml_valueINtB8_17BamlValueWithMetapE8zip_metapEs_0Ba_
FN:942,_RNCINvNtCs3JxpW9MMjKx_10baml_types10baml_value10add_checkspE0B6_
FN:715,_RNCNCINvMs5_NtCs3JxpW9MMjKx_10baml_types10baml_valueINtBa_17BamlValueWithMetapE8zip_metapE00Bc_
FN:753,_RNCNCINvMs5_NtCs3JxpW9MMjKx_10baml_types10baml_valueINtBa_17BamlValueWithMetapE8zip_metapEs0_00Bc_
FN:401,_RNCNCNvMs5_NtCs3JxpW9MMjKx_10baml_types10baml_valueINtB9_17BamlValueWithMetapE7is_type00Bb_
FN:404,_RNCNCNvMs5_NtCs3JxpW9MMjKx_10baml_types10baml_valueINtB9_17BamlValueWithMetapE7is_type0s_0Bb_
FN:367,_RNCNvMs3_NtCs3JxpW9MMjKx_10baml_types10baml_valueINtB7_17BamlValueWithMetapE9real_type0B9_
FN:373,_RNCNvMs3_NtCs3JxpW9MMjKx_10baml_types10baml_valueINtB7_17BamlValueWithMetapE9real_types0_0B9_
FN:373,_RNCNvMs3_NtCs3JxpW9MMjKx_10baml_types10baml_valueINtB7_17BamlValueWithMetapE9real_types1_0B9_
FN:372,_RNCNvMs3_NtCs3JxpW9MMjKx_10baml_types10baml_valueINtB7_17BamlValueWithMetapE9real_types_0B9_
FN:592,_RNCNvMs5_NtCs3JxpW9MMjKx_10baml_types10baml_valueINtB7_17BamlValueWithMetapE15with_const_meta0B9_
FN:609,_RNCNvMs5_NtCs3JxpW9MMjKx_10baml_types10baml_valueINtB7_17BamlValueWithMetapE15with_const_metas0_0B9_
FN:599,_RNCNvMs5_NtCs3JxpW9MMjKx_10baml_types10baml_valueINtB7_17BamlValueWithMetapE15with_const_metas_0B9_
FN:534,_RNCNvMs5_NtCs3JxpW9MMjKx_10baml_types10baml_valueINtB7_17BamlValueWithMetapE17with_default_meta0B9_
FN:542,_RNCNvMs5_NtCs3JxpW9MMjKx_10baml_types10baml_valueINtB7_17BamlValueWithMetapE17with_default_metas0_0B9_
FN:548,_RNCNvMs5_NtCs3JxpW9MMjKx_10baml_types10baml_valueINtB7_17BamlValueWithMetapE17with_default_metas1_0B9_
FN:551,_RNCNvMs5_NtCs3JxpW9MMjKx_10baml_types10baml_valueINtB7_17BamlValueWithMetapE17with_default_metas2_0B9_
FN:555,_RNCNvMs5_NtCs3JxpW9MMjKx_10baml_types10baml_valueINtB7_17BamlValueWithMetapE17with_default_metas3_0B9_
FN:569,_RNCNvMs5_NtCs3JxpW9MMjKx_10baml_types10baml_valueINtB7_17BamlValueWithMetapE17with_default_metas4_0B9_
FN:538,_RNCNvMs5_NtCs3JxpW9MMjKx_10baml_types10baml_valueINtB7_17BamlValueWithMetapE17with_default_metas_0B9_
FN:477,_RNCNvMs5_NtCs3JxpW9MMjKx_10baml_types10baml_valueINtB7_17BamlValueWithMetapE5value0B9_
FN:485,_RNCNvMs5_NtCs3JxpW9MMjKx_10baml_types10baml_valueINtB7_17BamlValueWithMetapE5values0_0B9_
FN:480,_RNCNvMs5_NtCs3JxpW9MMjKx_10baml_types10baml_valueINtB7_17BamlValueWithMetapE5values_0B9_
FN:394,_RNCNvMs5_NtCs3JxpW9MMjKx_10baml_types10baml_valueINtB7_17BamlValueWithMetapE7is_type0B9_
FN:439,_RNCNvMs5_NtCs3JxpW9MMjKx_10baml_types10baml_valueINtB7_17BamlValueWithMetapE7is_types0_0B9_
FN:433,_RNCNvMs5_NtCs3JxpW9MMjKx_10baml_types10baml_valueINtB7_17BamlValueWithMetapE7is_types_0B9_
FN:57,_RNCNvMs_NtCs3JxpW9MMjKx_10baml_types10baml_valueNtB6_9BamlValue4type0B8_
FN:71,_RNCNvMs_NtCs3JxpW9MMjKx_10baml_types10baml_valueNtB6_9BamlValue4types_0B8_
FN:838,_RNCNvXININtCs3JxpW9MMjKx_10baml_types10baml_values9_0pENtB7_9BamlValueINtNtCs8dmkrYGpicx_4core7convert4FromRINtB7_17BamlValueWithMetapEE4from0B9_
FN:845,_RNCNvXININtCs3JxpW9MMjKx_10baml_types10baml_values9_0pENtB7_9BamlValueINtNtCs8dmkrYGpicx_4core7convert4FromRINtB7_17BamlValueWithMetapEE4froms0_0B9_
FN:840,_RNCNvXININtCs3JxpW9MMjKx_10baml_types10baml_values9_0pENtB7_9BamlValueINtNtCs8dmkrYGpicx_4core7convert4FromRINtB7_17BamlValueWithMetapEE4froms_0B9_
FN:860,_RNCNvXININtCs3JxpW9MMjKx_10baml_types10baml_valuesa_0pENtB7_9BamlValueINtNtCs8dmkrYGpicx_4core7convert4FromINtB7_17BamlValueWithMetapEE4from0B9_
FN:866,_RNCNvXININtCs3JxpW9MMjKx_10baml_types10baml_valuesa_0pENtB7_9BamlValueINtNtCs8dmkrYGpicx_4core7convert4FromINtB7_17BamlValueWithMetapEE4froms0_0B9_
FN:861,_RNCNvXININtCs3JxpW9MMjKx_10baml_types10baml_valuesa_0pENtB7_9BamlValueINtNtCs8dmkrYGpicx_4core7convert4FromINtB7_17BamlValueWithMetapEE4froms_0B9_
FN:353,_RNvMs3_NtCs3JxpW9MMjKx_10baml_types10baml_valueINtB5_17BamlValueWithMetapE9real_typeB7_
FN:579,_RNvMs5_NtCs3JxpW9MMjKx_10baml_types10baml_valueINtB5_17BamlValueWithMetapE15with_const_metaB7_
FN:521,_RNvMs5_NtCs3JxpW9MMjKx_10baml_types10baml_valueINtB5_17BamlValueWithMetapE17with_default_metaB7_
FN:466,_RNvMs5_NtCs3JxpW9MMjKx_10baml_types10baml_valueINtB5_17BamlValueWithMetapE4iterB7_
FN:491,_RNvMs5_NtCs3JxpW9MMjKx_10baml_types10baml_valueINtB5_17BamlValueWithMetapE4metaB7_
FN:387,_RNvMs5_NtCs3JxpW9MMjKx_10baml_types10baml_valueINtB5_17BamlValueWithMetapE4typeB7_
FN:470,_RNvMs5_NtCs3JxpW9MMjKx_10baml_types10baml_valueINtB5_17BamlValueWithMetapE5valueB7_
FN:393,_RNvMs5_NtCs3JxpW9MMjKx_10baml_types10baml_valueINtB5_17BamlValueWithMetapE7is_typeB7_
FN:506,_RNvMs5_NtCs3JxpW9MMjKx_10baml_types10baml_valueINtB5_17BamlValueWithMetapE8meta_mutB7_
FN:777,_RNvMs6_NtCs3JxpW9MMjKx_10baml_types10baml_valueINtB5_25BamlValueWithMetaIteratorpE3newB7_
FN:124,_RNvMs_NtCs3JxpW9MMjKx_10baml_types10baml_valueNtB4_9BamlValue12as_map_owned
FN:131,_RNvMs_NtCs3JxpW9MMjKx_10baml_types10baml_valueNtB4_9BamlValue13as_list_owned
FN:48,_RNvMs_NtCs3JxpW9MMjKx_10baml_types10baml_valueNtB4_9BamlValue4type
FN:100,_RNvMs_NtCs3JxpW9MMjKx_10baml_types10baml_valueNtB4_9BamlValue6as_int
FN:118,_RNvMs_NtCs3JxpW9MMjKx_10baml_types10baml_valueNtB4_9BamlValue6as_map
FN:107,_RNvMs_NtCs3JxpW9MMjKx_10baml_types10baml_valueNtB4_9BamlValue6as_str
FN:114,_RNvMs_NtCs3JxpW9MMjKx_10baml_types10baml_valueNtB4_9BamlValue6is_map
FN:93,_RNvMs_NtCs3JxpW9MMjKx_10baml_types10baml_valueNtB4_9BamlValue7as_bool
FN:381,_RNvXININtCs3JxpW9MMjKx_10baml_types10baml_values4_0pEINtB5_17BamlValueWithMetapENtNtB7_7ir_type12HasFieldType10field_typeB7_
FN:787,_RNvXININtCs3JxpW9MMjKx_10baml_types10baml_values7_0pEINtB5_25BamlValueWithMetaIteratorpENtNtNtNtCs8dmkrYGpicx_4core4iter6traits8iterator8Iterator4nextB7_
FN:824,_RNvXININtCs3JxpW9MMjKx_10baml_types10baml_values8_0pERINtB5_17BamlValueWithMetapENtNtNtNtCs8dmkrYGpicx_4core4iter6traits7collect12IntoIterator9into_iterB7_
FN:830,_RNvXININtCs3JxpW9MMjKx_10baml_types10baml_values9_0pENtB5_9BamlValueINtNtCs8dmkrYGpicx_4core7convert4FromRINtB5_17BamlValueWithMetapEE4fromB7_
FN:853,_RNvXININtCs3JxpW9MMjKx_10baml_types10baml_valuesa_0pENtB5_9BamlValueINtNtCs8dmkrYGpicx_4core7convert4FromINtB5_17BamlValueWithMetapEE4fromB7_
FN:140,_RNvXs0_NtCs3JxpW9MMjKx_10baml_types10baml_valueNtB5_9BamlValueNtNtCs8dmkrYGpicx_4core3fmt7Display3fmt
FN:159,_RNvXs2_NtCs3JxpW9MMjKx_10baml_types10baml_valueNtB5_16BamlValueVisitorNtNtCs63OnOD5ygOS_5serde2de7Visitor9expecting
FN:966,_RNvXsc_NtCs3JxpW9MMjKx_10baml_types10baml_valueNtB5_10CompletionNtNtCs8dmkrYGpicx_4core7default7Default7default
FNDA:0,_RINvMs5_NtCs3JxpW9MMjKx_10baml_types10baml_valueINtB6_17BamlValueWithMetapE14map_meta_ownedppEB8_
FNDA:0,_RINvMs5_NtCs3JxpW9MMjKx_10baml_types10baml_valueINtB6_17BamlValueWithMetapE8map_metappEB8_
FNDA:0,_RINvMs5_NtCs3JxpW9MMjKx_10baml_types10baml_valueINtB6_17BamlValueWithMetapE8zip_metapEB8_
FNDA:0,_RINvNtCs3JxpW9MMjKx_10baml_types10baml_value10add_checkspEB4_
FNDA:0,_RINvNtCs3JxpW9MMjKx_10baml_types10baml_value21serialize_with_checksppEB4_
FNDA:0,_RINvXNtCs3JxpW9MMjKx_10baml_types10baml_valueNtB3_9BamlValueNtNtCs63OnOD5ygOS_5serde3ser9Serialize9serializepEB5_
FNDA:0,_RINvXs1_NtCs3JxpW9MMjKx_10baml_types10baml_valueNtB6_9BamlValueNtNtCs63OnOD5ygOS_5serde2de11Deserialize11deserializepEB8_
FNDA:0,_RINvXs2_NtCs3JxpW9MMjKx_10baml_types10baml_valueNtB6_16BamlValueVisitorNtNtCs63OnOD5ygOS_5serde2de7Visitor10visit_boolpEB8_
FNDA:0,_RINvXs2_NtCs3JxpW9MMjKx_10baml_types10baml_valueNtB6_16BamlValueVisitorNtNtCs63OnOD5ygOS_5serde2de7Visitor10visit_charpEB8_
FNDA:0,_RINvXs2_NtCs3JxpW9MMjKx_10baml_types10baml_valueNtB6_16BamlValueVisitorNtNtCs63OnOD5ygOS_5serde2de7Visitor10visit_i128pEB8_
FNDA:0,_RINvXs2_NtCs3JxpW9MMjKx_10baml_types10baml_valueNtB6_16BamlValueVisitorNtNtCs63OnOD5ygOS_5serde2de7Visitor10visit_nonepEB8_
FNDA:0,_RINvXs2_NtCs3JxpW9MMjKx_10baml_types10baml_valueNtB6_16BamlValueVisitorNtNtCs63OnOD5ygOS_5serde2de7Visitor10visit_somepEB8_
FNDA:0,_RINvXs2_NtCs3JxpW9MMjKx_10baml_types10baml_valueNtB6_16BamlValueVisitorNtNtCs63OnOD5ygOS_5serde2de7Visitor10visit_u128pEB8_
FNDA:0,_RINvXs2_NtCs3JxpW9MMjKx_10baml_types10baml_valueNtB6_16BamlValueVisitorNtNtCs63OnOD5ygOS_5serde2de7Visitor10visit_unitpEB8_
FNDA:0,_RINvXs2_NtCs3JxpW9MMjKx_10baml_types10baml_valueNtB6_16BamlValueVisitorNtNtCs63OnOD5ygOS_5serde2de7Visitor11visit_bytespEB8_
FNDA:0,_RINvXs2_NtCs3JxpW9MMjKx_10baml_types10baml_valueNtB6_16BamlValueVisitorNtNtCs63OnOD5ygOS_5serde2de7Visitor12visit_stringpEB8_
FNDA:0,_RINvXs2_NtCs3JxpW9MMjKx_10baml_types10baml_valueNtB6_16BamlValueVisitorNtNtCs63OnOD5ygOS_5serde2de7Visitor18visit_borrowed_strpEB8_
FNDA:0,_RINvXs2_NtCs3JxpW9MMjKx_10baml_types10baml_valueNtB6_16BamlValueVisitorNtNtCs63OnOD5ygOS_5serde2de7Visitor8visit_i8pEB8_
FNDA:0,_RINvXs2_NtCs3JxpW9MMjKx_10baml_types10baml_valueNtB6_16BamlValueVisitorNtNtCs63OnOD5ygOS_5serde2de7Visitor8visit_u8pEB8_
FNDA:0,_RINvXs2_NtCs3JxpW9MMjKx_10baml_types10baml_valueNtB6_16BamlValueVisitorNtNtCs63OnOD5ygOS_5serde2de7Visitor9visit_f32pEB8_
FNDA:0,_RINvXs2_NtCs3JxpW9MMjKx_10baml_types10baml_valueNtB6_16BamlValueVisitorNtNtCs63OnOD5ygOS_5serde2de7Visitor9visit_f64pEB8_
FNDA:0,_RINvXs2_NtCs3JxpW9MMjKx_10baml_types10baml_valueNtB6_16BamlValueVisitorNtNtCs63OnOD5ygOS_5serde2de7Visitor9visit_i16pEB8_
FNDA:0,_RINvXs2_NtCs3JxpW9MMjKx_10baml_types10baml_valueNtB6_16BamlValueVisitorNtNtCs63OnOD5ygOS_5serde2de7Visitor9visit_i32pEB8_
FNDA:0,_RINvXs2_NtCs3JxpW9MMjKx_10baml_types10baml_valueNtB6_16BamlValueVisitorNtNtCs63OnOD5ygOS_5serde2de7Visitor9visit_i64pEB8_
FNDA:0,_RINvXs2_NtCs3JxpW9MMjKx_10baml_types10baml_valueNtB6_16BamlValueVisitorNtNtCs63OnOD5ygOS_5serde2de7Visitor9visit_mappEB8_
FNDA:0,_RINvXs2_NtCs3JxpW9MMjKx_10baml_types10baml_valueNtB6_16BamlValueVisitorNtNtCs63OnOD5ygOS_5serde2de7Visitor9visit_seqpEB8_
FNDA:0,_RINvXs2_NtCs3JxpW9MMjKx_10baml_types10baml_valueNtB6_16BamlValueVisitorNtNtCs63OnOD5ygOS_5serde2de7Visitor9visit_strpEB8_
FNDA:0,_RINvXs2_NtCs3JxpW9MMjKx_10baml_types10baml_valueNtB6_16BamlValueVisitorNtNtCs63OnOD5ygOS_5serde2de7Visitor9visit_u16pEB8_
FNDA:0,_RINvXs2_NtCs3JxpW9MMjKx_10baml_types10baml_valueNtB6_16BamlValueVisitorNtNtCs63OnOD5ygOS_5serde2de7Visitor9visit_u32pEB8_
FNDA:0,_RINvXs2_NtCs3JxpW9MMjKx_10baml_types10baml_valueNtB6_16BamlValueVisitorNtNtCs63OnOD5ygOS_5serde2de7Visitor9visit_u64pEB8_
FNDA:0,_RINvXsb_NtCs3JxpW9MMjKx_10baml_types10baml_valueINtB6_17BamlValueWithMetaINtNtCs7Lutq36SewB_5alloc3vec3VecNtNtB8_10constraint13ResponseCheckEENtNtCs63OnOD5ygOS_5serde3ser9Serialize9serializepEB8_
FNDA:0,_RNCINvMs5_NtCs3JxpW9MMjKx_10baml_types10baml_valueINtB8_17BamlValueWithMetapE14map_meta_ownedppE0Ba_
FNDA:0,_RNCINvMs5_NtCs3JxpW9MMjKx_10baml_types10baml_valueINtB8_17BamlValueWithMetapE14map_meta_ownedppEs0_0Ba_
FNDA:0,_RNCINvMs5_NtCs3JxpW9MMjKx_10baml_types10baml_valueINtB8_17BamlValueWithMetapE14map_meta_ownedppEs_0Ba_
FNDA:0,_RNCINvMs5_NtCs3JxpW9MMjKx_10baml_types10baml_valueINtB8_17BamlValueWithMetapE8map_metappE0Ba_
FNDA:0,_RNCINvMs5_NtCs3JxpW9MMjKx_10baml_types10baml_valueINtB8_17BamlValueWithMetapE8map_metappEs0_0Ba_
FNDA:0,_RNCINvMs5_NtCs3JxpW9MMjKx_10baml_types10baml_valueINtB8_17BamlValueWithMetapE8map_metappEs_0Ba_
FNDA:0,_RNCINvMs5_NtCs3JxpW9MMjKx_10baml_types10baml_valueINtB8_17BamlValueWithMetapE8zip_metapE0Ba_
FNDA:0,_RNCINvMs5_NtCs3JxpW9MMjKx_10baml_types10baml_valueINtB8_17BamlValueWithMetapE8zip_metapEs0_0Ba_
FNDA:0,_RNCINvMs5_NtCs3JxpW9MMjKx_10baml_types10baml_valueINtB8_17BamlValueWithMetapE8zip_metapEs1_0Ba_
FNDA:0,_RNCINvMs5_NtCs3JxpW9MMjKx_10baml_types10baml_valueINtB8_17BamlValueWithMetapE8zip_metapEs_0Ba_
FNDA:0,_RNCINvNtCs3JxpW9MMjKx_10baml_types10baml_value10add_checkspE0B6_
FNDA:0,_RNCNCINvMs5_NtCs3JxpW9MMjKx_10baml_types10baml_valueINtBa_17BamlValueWithMetapE8zip_metapE00Bc_
FNDA:0,_RNCNCINvMs5_NtCs3JxpW9MMjKx_10baml_types10baml_valueINtBa_17BamlValueWithMetapE8zip_metapEs0_00Bc_
FNDA:0,_RNCNCNvMs5_NtCs3JxpW9MMjKx_10baml_types10baml_valueINtB9_17BamlValueWithMetapE7is_type00Bb_
FNDA:0,_RNCNCNvMs5_NtCs3JxpW9MMjKx_10baml_types10baml_valueINtB9_17BamlValueWithMetapE7is_type0s_0Bb_
FNDA:0,_RNCNvMs3_NtCs3JxpW9MMjKx_10baml_types10baml_valueINtB7_17BamlValueWithMetapE9real_type0B9_
FNDA:0,_RNCNvMs3_NtCs3JxpW9MMjKx_10baml_types10baml_valueINtB7_17BamlValueWithMetapE9real_types0_0B9_
FNDA:0,_RNCNvMs3_NtCs3JxpW9MMjKx_10baml_types10baml_valueINtB7_17BamlValueWithMetapE9real_types1_0B9_
FNDA:0,_RNCNvMs3_NtCs3JxpW9MMjKx_10baml_types10baml_valueINtB7_17BamlValueWithMetapE9real_types_0B9_
FNDA:0,_RNCNvMs5_NtCs3JxpW9MMjKx_10baml_types10baml_valueINtB7_17BamlValueWithMetapE15with_const_meta0B9_
FNDA:0,_RNCNvMs5_NtCs3JxpW9MMjKx_10baml_types10baml_valueINtB7_17BamlValueWithMetapE15with_const_metas0_0B9_
FNDA:0,_RNCNvMs5_NtCs3JxpW9MMjKx_10baml_types10baml_valueINtB7_17BamlValueWithMetapE15with_const_metas_0B9_
FNDA:0,_RNCNvMs5_NtCs3JxpW9MMjKx_10baml_types10baml_valueINtB7_17BamlValueWithMetapE17with_default_meta0B9_
FNDA:0,_RNCNvMs5_NtCs3JxpW9MMjKx_10baml_types10baml_valueINtB7_17BamlValueWithMetapE17with_default_metas0_0B9_
FNDA:0,_RNCNvMs5_NtCs3JxpW9MMjKx_10baml_types10baml_valueINtB7_17BamlValueWithMetapE17with_default_metas1_0B9_
FNDA:0,_RNCNvMs5_NtCs3JxpW9MMjKx_10baml_types10baml_valueINtB7_17BamlValueWithMetapE17with_default_metas2_0B9_
FNDA:0,_RNCNvMs5_NtCs3JxpW9MMjKx_10baml_types10baml_valueINtB7_17BamlValueWithMetapE17with_default_metas3_0B9_
FNDA:0,_RNCNvMs5_NtCs3JxpW9MMjKx_10baml_types10baml_valueINtB7_17BamlValueWithMetapE17with_default_metas4_0B9_
FNDA:0,_RNCNvMs5_NtCs3JxpW9MMjKx_10baml_types10baml_valueINtB7_17BamlValueWithMetapE17with_default_metas_0B9_
FNDA:0,_RNCNvMs5_NtCs3JxpW9MMjKx_10baml_types10baml_valueINtB7_17BamlValueWithMetapE5value0B9_
FNDA:0,_RNCNvMs5_NtCs3JxpW9MMjKx_10baml_types10baml_valueINtB7_17BamlValueWithMetapE5values0_0B9_
FNDA:0,_RNCNvMs5_NtCs3JxpW9MMjKx_10baml_types10baml_valueINtB7_17BamlValueWithMetapE5values_0B9_
FNDA:0,_RNCNvMs5_NtCs3JxpW9MMjKx_10baml_types10baml_valueINtB7_17BamlValueWithMetapE7is_type0B9_
FNDA:0,_RNCNvMs5_NtCs3JxpW9MMjKx_10baml_types10baml_valueINtB7_17BamlValueWithMetapE7is_types0_0B9_
FNDA:0,_RNCNvMs5_NtCs3JxpW9MMjKx_10baml_types10baml_valueINtB7_17BamlValueWithMetapE7is_types_0B9_
FNDA:0,_RNCNvMs_NtCs3JxpW9MMjKx_10baml_types10baml_valueNtB6_9BamlValue4type0B8_
FNDA:0,_RNCNvMs_NtCs3JxpW9MMjKx_10baml_types10baml_valueNtB6_9BamlValue4types_0B8_
FNDA:0,_RNCNvXININtCs3JxpW9MMjKx_10baml_types10baml_values9_0pENtB7_9BamlValueINtNtCs8dmkrYGpicx_4core7convert4FromRINtB7_17BamlValueWithMetapEE4from0B9_
FNDA:0,_RNCNvXININtCs3JxpW9MMjKx_10baml_types10baml_values9_0pENtB7_9BamlValueINtNtCs8dmkrYGpicx_4core7convert4FromRINtB7_17BamlValueWithMetapEE4froms0_0B9_
FNDA:0,_RNCNvXININtCs3JxpW9MMjKx_10baml_types10baml_values9_0pENtB7_9BamlValueINtNtCs8dmkrYGpicx_4core7convert4FromRINtB7_17BamlValueWithMetapEE4froms_0B9_
FNDA:0,_RNCNvXININtCs3JxpW9MMjKx_10baml_types10baml_valuesa_0pENtB7_9BamlValueINtNtCs8dmkrYGpicx_4core7convert4FromINtB7_17BamlValueWithMetapEE4from0B9_
FNDA:0,_RNCNvXININtCs3JxpW9MMjKx_10baml_types10baml_valuesa_0pENtB7_9BamlValueINtNtCs8dmkrYGpicx_4core7convert4FromINtB7_17BamlValueWithMetapEE4froms0_0B9_
FNDA:0,_RNCNvXININtCs3JxpW9MMjKx_10baml_types10baml_valuesa_0pENtB7_9BamlValueINtNtCs8dmkrYGpicx_4core7convert4FromINtB7_17BamlValueWithMetapEE4froms_0B9_
FNDA:0,_RNvMs3_NtCs3JxpW9MMjKx_10baml_types10baml_valueINtB5_17BamlValueWithMetapE9real_typeB7_
FNDA:0,_RNvMs5_NtCs3JxpW9MMjKx_10baml_types10baml_valueINtB5_17BamlValueWithMetapE15with_const_metaB7_
FNDA:0,_RNvMs5_NtCs3JxpW9MMjKx_10baml_types10baml_valueINtB5_17BamlValueWithMetapE17with_default_metaB7_
FNDA:0,_RNvMs5_NtCs3JxpW9MMjKx_10baml_types10baml_valueINtB5_17BamlValueWithMetapE4iterB7_
FNDA:0,_RNvMs5_NtCs3JxpW9MMjKx_10baml_types10baml_valueINtB5_17BamlValueWithMetapE4metaB7_
FNDA:0,_RNvMs5_NtCs3JxpW9MMjKx_10baml_types10baml_valueINtB5_17BamlValueWithMetapE4typeB7_
FNDA:0,_RNvMs5_NtCs3JxpW9MMjKx_10baml_types10baml_valueINtB5_17BamlValueWithMetapE5valueB7_
FNDA:0,_RNvMs5_NtCs3JxpW9MMjKx_10baml_types10baml_valueINtB5_17BamlValueWithMetapE7is_typeB7_
FNDA:0,_RNvMs5_NtCs3JxpW9MMjKx_10baml_types10baml_valueINtB5_17BamlValueWithMetapE8meta_mutB7_
FNDA:0,_RNvMs6_NtCs3JxpW9MMjKx_10baml_types10baml_valueINtB5_25BamlValueWithMetaIteratorpE3newB7_
FNDA:0,_RNvMs_NtCs3JxpW9MMjKx_10baml_types10baml_valueNtB4_9BamlValue12as_map_owned
FNDA:0,_RNvMs_NtCs3JxpW9MMjKx_10baml_types10baml_valueNtB4_9BamlValue13as_list_owned
FNDA:0,_RNvMs_NtCs3JxpW9MMjKx_10baml_types10baml_valueNtB4_9BamlValue4type
FNDA:0,_RNvMs_NtCs3JxpW9MMjKx_10baml_types10baml_valueNtB4_9BamlValue6as_int
FNDA:0,_RNvMs_NtCs3JxpW9MMjKx_10baml_types10baml_valueNtB4_9BamlValue6as_map
FNDA:0,_RNvMs_NtCs3JxpW9MMjKx_10baml_types10baml_valueNtB4_9BamlValue6as_str
FNDA:0,_RNvMs_NtCs3JxpW9MMjKx_10baml_types10baml_valueNtB4_9BamlValue6is_map
FNDA:0,_RNvMs_NtCs3JxpW9MMjKx_10baml_types10baml_valueNtB4_9BamlValue7as_bool
FNDA:0,_RNvXININtCs3JxpW9MMjKx_10baml_types10baml_values4_0pEINtB5_17BamlValueWithMetapENtNtB7_7ir_type12HasFieldType10field_typeB7_
FNDA:0,_RNvXININtCs3JxpW9MMjKx_10baml_types10baml_values7_0pEINtB5_25BamlValueWithMetaIteratorpENtNtNtNtCs8dmkrYGpicx_4core4iter6traits8iterator8Iterator4nextB7_
FNDA:0,_RNvXININtCs3JxpW9MMjKx_10baml_types10baml_values8_0pERINtB5_17BamlValueWithMetapENtNtNtNtCs8dmkrYGpicx_4core4iter6traits7collect12IntoIterator9into_iterB7_
FNDA:0,_RNvXININtCs3JxpW9MMjKx_10baml_types10baml_values9_0pENtB5_9BamlValueINtNtCs8dmkrYGpicx_4core7convert4FromRINtB5_17BamlValueWithMetapEE4fromB7_
FNDA:0,_RNvXININtCs3JxpW9MMjKx_10baml_types10baml_valuesa_0pENtB5_9BamlValueINtNtCs8dmkrYGpicx_4core7convert4FromINtB5_17BamlValueWithMetapEE4fromB7_
FNDA:0,_RNvXs0_NtCs3JxpW9MMjKx_10baml_types10baml_valueNtB5_9BamlValueNtNtCs8dmkrYGpicx_4core3fmt7Display3fmt
FNDA:0,_RNvXs2_NtCs3JxpW9MMjKx_10baml_types10baml_valueNtB5_16BamlValueVisitorNtNtCs63OnOD5ygOS_5serde2de7Visitor9expecting
FNDA:0,_RNvXsc_NtCs3JxpW9MMjKx_10baml_types10baml_valueNtB5_10CompletionNtNtCs8dmkrYGpicx_4core7default7Default7default
FNF:100
FNH:0
DA:31,0
DA:32,0
DA:33,0
DA:34,0
DA:35,0
DA:36,0
DA:37,0
DA:38,0
DA:39,0
DA:40,0
DA:41,0
DA:42,0
DA:44,0
DA:48,0
DA:49,0
DA:50,0
DA:51,0
DA:52,0
DA:53,0
DA:54,0
DA:55,0
DA:56,0
DA:57,0
DA:58,0
DA:59,0
DA:60,0
DA:61,0
DA:62,0
DA:63,0
DA:65,0
DA:68,0
DA:69,0
DA:70,0
DA:71,0
DA:72,0
DA:73,0
DA:74,0
DA:75,0
DA:76,0
DA:77,0
DA:79,0
DA:82,0
DA:83,0
DA:84,0
DA:86,0
DA:87,0
DA:88,0
DA:89,0
DA:91,0
DA:93,0
DA:94,0
DA:95,0
DA:96,0
DA:98,0
DA:100,0
DA:101,0
DA:102,0
DA:103,0
DA:105,0
DA:107,0
DA:108,0
DA:109,0
DA:110,0
DA:112,0
DA:114,0
DA:115,0
DA:116,0
DA:118,0
DA:119,0
DA:120,0
DA:121,0
DA:123,0
DA:124,0
DA:125,0
DA:126,0
DA:127,0
DA:129,0
DA:131,0
DA:132,0
DA:133,0
DA:134,0
DA:136,0
DA:140,0
DA:141,0
DA:142,0
DA:146,0
DA:147,0
DA:148,0
DA:149,0
DA:150,0
DA:151,0
DA:159,0
DA:160,0
DA:161,0
DA:163,0
DA:164,0
DA:165,0
DA:166,0
DA:167,0
DA:168,0
DA:170,0
DA:171,0
DA:172,0
DA:173,0
DA:174,0
DA:175,0
DA:177,0
DA:178,0
DA:179,0
DA:180,0
DA:181,0
DA:182,0
DA:184,0
DA:185,0
DA:186,0
DA:187,0
DA:188,0
DA:189,0
DA:191,0
DA:192,0
DA:193,0
DA:194,0
DA:195,0
DA:196,0
DA:198,0
DA:199,0
DA:200,0
DA:201,0
DA:202,0
DA:203,0
DA:205,0
DA:206,0
DA:207,0
DA:208,0
DA:209,0
DA:210,0
DA:212,0
DA:213,0
DA:214,0
DA:215,0
DA:216,0
DA:217,0
DA:219,0
DA:220,0
DA:221,0
DA:222,0
DA:223,0
DA:224,0
DA:226,0
DA:227,0
DA:228,0
DA:229,0
DA:230,0
DA:231,0
DA:233,0
DA:234,0
DA:235,0
DA:236,0
DA:237,0
DA:238,0
DA:240,0
DA:241,0
DA:242,0
DA:243,0
DA:244,0
DA:245,0
DA:247,0
DA:248,0
DA:249,0
DA:250,0
DA:251,0
DA:252,0
DA:254,0
DA:255,0
DA:256,0
DA:257,0
DA:258,0
DA:259,0
DA:261,0
DA:262,0
DA:263,0
DA:264,0
DA:265,0
DA:266,0
DA:268,0
DA:269,0
DA:270,0
DA:271,0
DA:272,0
DA:273,0
DA:275,0
DA:276,0
DA:277,0
DA:278,0
DA:279,0
DA:280,0
DA:282,0
DA:283,0
DA:284,0
DA:285,0
DA:286,0
DA:287,0
DA:289,0
DA:290,0
DA:291,0
DA:292,0
DA:293,0
DA:294,0
DA:296,0
DA:297,0
DA:298,0
DA:299,0
DA:300,0
DA:301,0
DA:303,0
DA:304,0
DA:305,0
DA:306,0
DA:307,0
DA:308,0
DA:310,0
DA:311,0
DA:312,0
DA:313,0
DA:314,0
DA:315,0
DA:316,0
DA:317,0
DA:318,0
DA:319,0
DA:321,0
DA:322,0
DA:323,0
DA:324,0
DA:325,0
DA:326,0
DA:327,0
DA:328,0
DA:329,0
DA:330,0
DA:353,0
DA:354,0
DA:355,0
DA:356,0
DA:357,0
DA:358,0
DA:359,0
DA:360,0
DA:362,0
DA:365,0
DA:366,0
DA:367,0
DA:368,0
DA:369,0
DA:370,0
DA:371,0
DA:372,0
DA:373,0
DA:375,0
DA:376,0
DA:377,0
DA:381,0
DA:382,0
DA:383,0
DA:387,0
DA:388,0
DA:389,0
DA:390,0
DA:393,0
DA:394,0
DA:395,0
DA:396,0
DA:397,0
DA:398,0
DA:400,0
DA:401,0
DA:403,0
DA:404,0
DA:407,0
DA:408,0
DA:410,0
DA:411,0
DA:412,0
DA:413,0
DA:414,0
DA:416,0
DA:417,0
DA:418,0
DA:419,0
DA:421,0
DA:422,0
DA:423,0
DA:425,0
DA:426,0
DA:427,0
DA:428,0
DA:430,0
DA:431,0
DA:432,0
DA:433,0
DA:435,0
DA:437,0
DA:438,0
DA:439,0
DA:441,0
DA:443,0
DA:444,0
DA:445,0
DA:447,0
DA:449,0
DA:450,0
DA:451,0
DA:453,0
DA:454,0
DA:455,0
DA:457,0
DA:458,0
DA:459,0
DA:462,0
DA:466,0
DA:467,0
DA:468,0
DA:470,0
DA:471,0
DA:472,0
DA:473,0
DA:474,0
DA:475,0
DA:476,0
DA:477,0
DA:479,0
DA:480,0
DA:482,0
DA:483,0
DA:484,0
DA:485,0
DA:487,0
DA:489,0
DA:491,0
DA:492,0
DA:493,0
DA:494,0
DA:495,0
DA:496,0
DA:497,0
DA:498,0
DA:499,0
DA:500,0
DA:501,0
DA:502,0
DA:504,0
DA:506,0
DA:507,0
DA:508,0
DA:509,0
DA:510,0
DA:511,0
DA:512,0
DA:513,0
DA:514,0
DA:515,0
DA:516,0
DA:517,0
DA:519,0
DA:521,0
DA:522,0
DA:523,0
DA:524,0
DA:526,0
DA:527,0
DA:528,0
DA:529,0
DA:530,0
DA:531,0
DA:532,0
DA:533,0
DA:534,0
DA:535,0
DA:536,0
DA:537,0
DA:538,0
DA:539,0
DA:540,0
DA:541,0
DA:542,0
DA:543,0
DA:544,0
DA:546,0
DA:547,0
DA:548,0
DA:549,0
DA:550,0
DA:551,0
DA:552,0
DA:553,0
DA:554,0
DA:555,0
DA:556,0
DA:558,0
DA:559,0
DA:560,0
DA:561,0
DA:562,0
DA:565,0
DA:566,0
DA:567,0
DA:568,0
DA:569,0
DA:570,0
DA:571,0
DA:572,0
DA:574,0
DA:576,0
DA:579,0
DA:580,0
DA:581,0
DA:582,0
DA:584,0
DA:585,0
DA:586,0
DA:587,0
DA:588,0
DA:589,0
DA:590,0
DA:591,0
DA:592,0
DA:593,0
DA:594,0
DA:595,0
DA:596,0
DA:597,0
DA:598,0
DA:599,0
DA:600,0
DA:601,0
DA:602,0
DA:603,0
DA:604,0
DA:605,0
DA:606,0
DA:607,0
DA:608,0
DA:609,0
DA:610,0
DA:611,0
DA:612,0
DA:613,0
DA:615,0
DA:617,0
DA:618,0
DA:619,0
DA:620,0
DA:621,0
DA:622,0
DA:623,0
DA:624,0
DA:625,0
DA:626,0
DA:627,0
DA:628,0
DA:629,0
DA:630,0
DA:631,0
DA:633,0
DA:634,0
DA:635,0
DA:636,0
DA:637,0
DA:638,0
DA:639,0
DA:640,0
DA:641,0
DA:642,0
DA:644,0
DA:646,0
DA:647,0
DA:648,0
DA:649,0
DA:650,0
DA:651,0
DA:652,0
DA:653,0
DA:654,0
DA:655,0
DA:656,0
DA:657,0
DA:658,0
DA:659,0
DA:660,0
DA:661,0
DA:662,0
DA:664,0
DA:665,0
DA:666,0
DA:667,0
DA:668,0
DA:669,0
DA:670,0
DA:671,0
DA:672,0
DA:673,0
DA:675,0
DA:682,0
DA:683,0
DA:684,0
DA:685,0
DA:686,0
DA:687,0
DA:688,0
DA:689,0
DA:690,0
DA:691,0
DA:692,0
DA:693,0
DA:695,0
DA:696,0
DA:698,0
DA:699,0
DA:700,0
DA:702,0
DA:703,0
DA:704,0
DA:706,0
DA:707,0
DA:708,0
DA:710,0
DA:711,0
DA:712,0
DA:713,0
DA:714,0
DA:715,0
DA:716,0
DA:717,0
DA:719,0
DA:720,0
DA:721,0
DA:722,0
DA:723,0
DA:724,0
DA:725,0
DA:726,0
DA:728,0
DA:729,0
DA:730,0
DA:732,0
DA:733,0
DA:734,0
DA:735,0
DA:736,0
DA:738,0
DA:740,0
DA:741,0
DA:742,0
DA:749,0
DA:750,0
DA:751,0
DA:752,0
DA:753,0
DA:754,0
DA:755,0
DA:756,0
DA:757,0
DA:758,0
DA:759,0
DA:760,0
DA:762,0
DA:764,0
DA:765,0
DA:777,0
DA:778,0
DA:779,0
DA:780,0
DA:781,0
DA:787,0
DA:788,0
DA:790,0
DA:791,0
DA:792,0
DA:793,0
DA:794,0
DA:795,0
DA:796,0
DA:797,0
DA:799,0
DA:800,0
DA:801,0
DA:802,0
DA:811,0
DA:813,0
DA:815,0
DA:817,0
DA:824,0
DA:825,0
DA:826,0
DA:830,0
DA:832,0
DA:833,0
DA:834,0
DA:835,0
DA:836,0
DA:837,0
DA:838,0
DA:840,0
DA:841,0
DA:842,0
DA:843,0
DA:844,0
DA:845,0
DA:846,0
DA:847,0
DA:849,0
DA:853,0
DA:855,0
DA:856,0
DA:857,0
DA:858,0
DA:859,0
DA:860,0
DA:861,0
DA:862,0
DA:863,0
DA:864,0
DA:865,0
DA:866,0
DA:867,0
DA:868,0
DA:870,0
DA:877,0
DA:878,0
DA:879,0
DA:880,0
DA:881,0
DA:882,0
DA:883,0
DA:884,0
DA:885,0
DA:886,0
DA:887,0
DA:888,0
DA:889,0
DA:891,0
DA:892,0
DA:894,0
DA:895,0
DA:896,0
DA:897,0
DA:898,0
DA:899,0
DA:900,0
DA:901,0
DA:903,0
DA:904,0
DA:906,0
DA:907,0
DA:908,0
DA:909,0
DA:912,0
DA:914,0
DA:917,0
DA:918,0
DA:919,0
DA:920,0
DA:921,0
DA:922,0
DA:923,0
DA:924,0
DA:925,0
DA:926,0
DA:927,0
DA:928,0
DA:929,0
DA:931,0
DA:933,0
DA:935,0
DA:936,0
DA:937,0
DA:938,0
DA:939,0
DA:940,0
DA:941,0
DA:942,0
DA:943,0
DA:944,0
DA:945,0
DA:946,0
DA:947,0
DA:966,0
DA:967,0
DA:968,0
DA:969,0
DA:970,0
DA:971,0
DA:972,0
BRF:0
BRH:0
LF:737
LH:0
end_of_record
SF:/Users/rahul/code/rust/baml/engine/baml-lib/baml-types/src/constraint.rs
FN:11,_RNvMNtCs3JxpW9MMjKx_10baml_types10constraintNtB2_10Constraint9new_check
FN:19,_RNvMNtCs3JxpW9MMjKx_10baml_types10constraintNtB2_10Constraint10new_assert
FN:27,_RNvMNtCs3JxpW9MMjKx_10baml_types10constraintNtB2_10Constraint8as_check
FN:58,_RNvMs_NtCs3JxpW9MMjKx_10baml_types10constraintNtB4_13ResponseCheck17from_check_result
FNDA:1,_RNvMNtCs3JxpW9MMjKx_10baml_types10constraintNtB2_10Constraint9new_check
FNDA:0,_RNvMNtCs3JxpW9MMjKx_10baml_types10constraintNtB2_10Constraint10new_assert
FNDA:0,_RNvMNtCs3JxpW9MMjKx_10baml_types10constraintNtB2_10Constraint8as_check
FNDA:0,_RNvMs_NtCs3JxpW9MMjKx_10baml_types10constraintNtB4_13ResponseCheck17from_check_result
FNF:4
FNH:1
DA:11,1
DA:12,1
DA:13,1
DA:14,1
DA:15,1
DA:16,1
DA:17,1
DA:19,0
DA:20,0
DA:21,0
DA:22,0
DA:23,0
DA:24,0
DA:25,0
DA:27,0
DA:28,0
DA:29,0
DA:30,0
DA:31,0
DA:32,0
DA:33,0
DA:34,0
DA:36,0
DA:58,0
DA:59,0
DA:60,0
DA:61,0
DA:62,0
DA:63,0
DA:64,0
DA:65,0
DA:66,0
DA:67,0
DA:68,0
DA:69,0
DA:70,0
DA:71,0
DA:73,0
DA:75,0
DA:76,0
DA:77,0
DA:78,0
DA:79,0
DA:81,0
DA:83,0
BRF:0
BRH:0
LF:45
LH:7
end_of_record
SF:/Users/rahul/code/rust/baml/engine/baml-lib/baml-types/src/expr.rs
FN:254,_RNCNvMs0_NtCs3JxpW9MMjKx_10baml_types4exprINtB7_4ExprpE20temporary_same_state0B9_
FN:291,_RNCNvMs0_NtCs3JxpW9MMjKx_10baml_types4exprINtB7_4ExprpE20temporary_same_states0_0B9_
FN:300,_RNCNvMs0_NtCs3JxpW9MMjKx_10baml_types4exprINtB7_4ExprpE20temporary_same_states1_0B9_
FN:277,_RNCNvMs0_NtCs3JxpW9MMjKx_10baml_types4exprINtB7_4ExprpE20temporary_same_states_0B9_
FN:141,_RNCNvMs0_NtCs3JxpW9MMjKx_10baml_types4exprINtB7_4ExprpE8dump_str0B9_
FN:171,_RNCNvMs0_NtCs3JxpW9MMjKx_10baml_types4exprINtB7_4ExprpE8dump_strs0_0B9_
FN:184,_RNCNvMs0_NtCs3JxpW9MMjKx_10baml_types4exprINtB7_4ExprpE8dump_strs1_0B9_
FN:159,_RNCNvMs0_NtCs3JxpW9MMjKx_10baml_types4exprINtB7_4ExprpE8dump_strs2_0B9_
FN:198,_RNCNvMs0_NtCs3JxpW9MMjKx_10baml_types4exprINtB7_4ExprpE8dump_strs3_0B9_
FN:163,_RNCNvMs0_NtCs3JxpW9MMjKx_10baml_types4exprINtB7_4ExprpE8dump_strs_0B9_
FN:342,_RNCNvMs1_NtCs3JxpW9MMjKx_10baml_types4exprINtB7_4ExprTNtNtCskfqWihpv58T_25internal_baml_diagnostics4span4SpanINtNtCs8dmkrYGpicx_4core6option6OptionINtNtB9_7ir_type11TypeGenericNtNtNtB2o_9type_meta4base8TypeMetaEEEE7as_atom0B9_
FN:368,_RNCNvMs1_NtCs3JxpW9MMjKx_10baml_types4exprINtB7_4ExprTNtNtCskfqWihpv58T_25internal_baml_diagnostics4span4SpanINtNtCs8dmkrYGpicx_4core6option6OptionINtNtB9_7ir_type11TypeGenericNtNtNtB2o_9type_meta4base8TypeMetaEEEE7as_atoms0_0B9_
FN:349,_RNCNvMs1_NtCs3JxpW9MMjKx_10baml_types4exprINtB7_4ExprTNtNtCskfqWihpv58T_25internal_baml_diagnostics4span4SpanINtNtCs8dmkrYGpicx_4core6option6OptionINtNtB9_7ir_type11TypeGenericNtNtNtB2o_9type_meta4base8TypeMetaEEEE7as_atoms_0B9_
FN:387,_RNCNvMs1_NtCs3JxpW9MMjKx_10baml_types4exprINtB7_4ExprTNtNtCskfqWihpv58T_25internal_baml_diagnostics4span4SpanINtNtCs8dmkrYGpicx_4core6option6OptionINtNtB9_7ir_type11TypeGenericNtNtNtB2o_9type_meta4base8TypeMetaEEEE9free_vars0B9_
FN:395,_RNCNvMs1_NtCs3JxpW9MMjKx_10baml_types4exprINtB7_4ExprTNtNtCskfqWihpv58T_25internal_baml_diagnostics4span4SpanINtNtCs8dmkrYGpicx_4core6option6OptionINtNtB9_7ir_type11TypeGenericNtNtNtB2o_9type_meta4base8TypeMetaEEEE9free_varss0_0B9_
FN:424,_RNCNvMs1_NtCs3JxpW9MMjKx_10baml_types4exprINtB7_4ExprTNtNtCskfqWihpv58T_25internal_baml_diagnostics4span4SpanINtNtCs8dmkrYGpicx_4core6option6OptionINtNtB9_7ir_type11TypeGenericNtNtNtB2o_9type_meta4base8TypeMetaEEEE9free_varss1_0B9_
FN:390,_RNCNvMs1_NtCs3JxpW9MMjKx_10baml_types4exprINtB7_4ExprTNtNtCskfqWihpv58T_25internal_baml_diagnostics4span4SpanINtNtCs8dmkrYGpicx_4core6option6OptionINtNtB9_7ir_type11TypeGenericNtNtNtB2o_9type_meta4base8TypeMetaEEEE9free_varss_0B9_
FN:465,_RNCNvMs2_NtCs3JxpW9MMjKx_10baml_types4exprINtB7_4ExprpE4open0B9_
FN:484,_RNCNvMs2_NtCs3JxpW9MMjKx_10baml_types4exprINtB7_4ExprpE4opens0_0B9_
FN:486,_RNCNvMs2_NtCs3JxpW9MMjKx_10baml_types4exprINtB7_4ExprpE4opens1_0B9_
FN:517,_RNCNvMs2_NtCs3JxpW9MMjKx_10baml_types4exprINtB7_4ExprpE4opens2_0B9_
FN:521,_RNCNvMs2_NtCs3JxpW9MMjKx_10baml_types4exprINtB7_4ExprpE4opens3_0B9_
FN:471,_RNCNvMs2_NtCs3JxpW9MMjKx_10baml_types4exprINtB7_4ExprpE4opens_0B9_
FN:544,_RNCNvMs2_NtCs3JxpW9MMjKx_10baml_types4exprINtB7_4ExprpE5close0B9_
FN:563,_RNCNvMs2_NtCs3JxpW9MMjKx_10baml_types4exprINtB7_4ExprpE5closes0_0B9_
FN:567,_RNCNvMs2_NtCs3JxpW9MMjKx_10baml_types4exprINtB7_4ExprpE5closes1_0B9_
FN:598,_RNCNvMs2_NtCs3JxpW9MMjKx_10baml_types4exprINtB7_4ExprpE5closes2_0B9_
FN:602,_RNCNvMs2_NtCs3JxpW9MMjKx_10baml_types4exprINtB7_4ExprpE5closes3_0B9_
FN:550,_RNCNvMs2_NtCs3JxpW9MMjKx_10baml_types4exprINtB7_4ExprpE5closes_0B9_
FN:61,_RNvMNtCs3JxpW9MMjKx_10baml_types4exprNtB2_8VarIndex6deeper
FN:58,_RNvMNtCs3JxpW9MMjKx_10baml_types4exprNtB2_8VarIndex8dump_str
FN:220,_RNvMs0_NtCs3JxpW9MMjKx_10baml_types4exprINtB5_4ExprpE20temporary_same_stateB7_
FN:130,_RNvMs0_NtCs3JxpW9MMjKx_10baml_types4exprINtB5_4ExprpE8dump_strB7_
FN:453,_RNvMs1_NtCs3JxpW9MMjKx_10baml_types4exprINtB5_4ExprTNtNtCskfqWihpv58T_25internal_baml_diagnostics4span4SpanINtNtCs8dmkrYGpicx_4core6option6OptionINtNtB7_7ir_type11TypeGenericNtNtNtB2m_9type_meta4base8TypeMetaEEEE10fresh_name
FN:439,_RNvMs1_NtCs3JxpW9MMjKx_10baml_types4exprINtB5_4ExprTNtNtCskfqWihpv58T_25internal_baml_diagnostics4span4SpanINtNtCs8dmkrYGpicx_4core6option6OptionINtNtB7_7ir_type11TypeGenericNtNtNtB2m_9type_meta4base8TypeMetaEEEE11fresh_names
FN:336,_RNvMs1_NtCs3JxpW9MMjKx_10baml_types4exprINtB5_4ExprTNtNtCskfqWihpv58T_25internal_baml_diagnostics4span4SpanINtNtCs8dmkrYGpicx_4core6option6OptionINtNtB7_7ir_type11TypeGenericNtNtNtB2m_9type_meta4base8TypeMetaEEEE7as_atom
FN:384,_RNvMs1_NtCs3JxpW9MMjKx_10baml_types4exprINtB5_4ExprTNtNtCskfqWihpv58T_25internal_baml_diagnostics4span4SpanINtNtCs8dmkrYGpicx_4core6option6OptionINtNtB7_7ir_type11TypeGenericNtNtNtB2m_9type_meta4base8TypeMetaEEEE9free_vars
FN:461,_RNvMs2_NtCs3JxpW9MMjKx_10baml_types4exprINtB5_4ExprpE4openB7_
FN:540,_RNvMs2_NtCs3JxpW9MMjKx_10baml_types4exprINtB5_4ExprpE5closeB7_
FN:636,_RNvMs4_NtCs3JxpW9MMjKx_10baml_types4exprINtB5_12ExprIteratorpE3newB7_
FN:73,_RNvMs_NtCs3JxpW9MMjKx_10baml_types4exprINtB4_4ExprpE4metaB6_
FN:91,_RNvMs_NtCs3JxpW9MMjKx_10baml_types4exprINtB4_4ExprpE8meta_mutB6_
FN:109,_RNvMs_NtCs3JxpW9MMjKx_10baml_types4exprINtB4_4ExprpE9into_metaB6_
FN:625,_RNvXININtCs3JxpW9MMjKx_10baml_types4exprs3_0pERINtB5_4ExprpENtNtNtNtCs8dmkrYGpicx_4core4iter6traits7collect12IntoIterator9into_iterB7_
FN:646,_RNvXININtCs3JxpW9MMjKx_10baml_types4exprs5_0pEINtB5_12ExprIteratorpENtNtNtNtCs8dmkrYGpicx_4core4iter6traits8iterator8Iterator4nextB7_
FNDA:0,_RNCNvMs0_NtCs3JxpW9MMjKx_10baml_types4exprINtB7_4ExprpE20temporary_same_state0B9_
FNDA:0,_RNCNvMs0_NtCs3JxpW9MMjKx_10baml_types4exprINtB7_4ExprpE20temporary_same_states0_0B9_
FNDA:0,_RNCNvMs0_NtCs3JxpW9MMjKx_10baml_types4exprINtB7_4ExprpE20temporary_same_states1_0B9_
FNDA:0,_RNCNvMs0_NtCs3JxpW9MMjKx_10baml_types4exprINtB7_4ExprpE20temporary_same_states_0B9_
FNDA:0,_RNCNvMs0_NtCs3JxpW9MMjKx_10baml_types4exprINtB7_4ExprpE8dump_str0B9_
FNDA:0,_RNCNvMs0_NtCs3JxpW9MMjKx_10baml_types4exprINtB7_4ExprpE8dump_strs0_0B9_
FNDA:0,_RNCNvMs0_NtCs3JxpW9MMjKx_10baml_types4exprINtB7_4ExprpE8dump_strs1_0B9_
FNDA:0,_RNCNvMs0_NtCs3JxpW9MMjKx_10baml_types4exprINtB7_4ExprpE8dump_strs2_0B9_
FNDA:0,_RNCNvMs0_NtCs3JxpW9MMjKx_10baml_types4exprINtB7_4ExprpE8dump_strs3_0B9_
FNDA:0,_RNCNvMs0_NtCs3JxpW9MMjKx_10baml_types4exprINtB7_4ExprpE8dump_strs_0B9_
FNDA:0,_RNCNvMs1_NtCs3JxpW9MMjKx_10baml_types4exprINtB7_4ExprTNtNtCskfqWihpv58T_25internal_baml_diagnostics4span4SpanINtNtCs8dmkrYGpicx_4core6option6OptionINtNtB9_7ir_type11TypeGenericNtNtNtB2o_9type_meta4base8TypeMetaEEEE7as_atom0B9_
FNDA:0,_RNCNvMs1_NtCs3JxpW9MMjKx_10baml_types4exprINtB7_4ExprTNtNtCskfqWihpv58T_25internal_baml_diagnostics4span4SpanINtNtCs8dmkrYGpicx_4core6option6OptionINtNtB9_7ir_type11TypeGenericNtNtNtB2o_9type_meta4base8TypeMetaEEEE7as_atoms0_0B9_
FNDA:0,_RNCNvMs1_NtCs3JxpW9MMjKx_10baml_types4exprINtB7_4ExprTNtNtCskfqWihpv58T_25internal_baml_diagnostics4span4SpanINtNtCs8dmkrYGpicx_4core6option6OptionINtNtB9_7ir_type11TypeGenericNtNtNtB2o_9type_meta4base8TypeMetaEEEE7as_atoms_0B9_
FNDA:0,_RNCNvMs1_NtCs3JxpW9MMjKx_10baml_types4exprINtB7_4ExprTNtNtCskfqWihpv58T_25internal_baml_diagnostics4span4SpanINtNtCs8dmkrYGpicx_4core6option6OptionINtNtB9_7ir_type11TypeGenericNtNtNtB2o_9type_meta4base8TypeMetaEEEE9free_vars0B9_
FNDA:0,_RNCNvMs1_NtCs3JxpW9MMjKx_10baml_types4exprINtB7_4ExprTNtNtCskfqWihpv58T_25internal_baml_diagnostics4span4SpanINtNtCs8dmkrYGpicx_4core6option6OptionINtNtB9_7ir_type11TypeGenericNtNtNtB2o_9type_meta4base8TypeMetaEEEE9free_varss0_0B9_
FNDA:0,_RNCNvMs1_NtCs3JxpW9MMjKx_10baml_types4exprINtB7_4ExprTNtNtCskfqWihpv58T_25internal_baml_diagnostics4span4SpanINtNtCs8dmkrYGpicx_4core6option6OptionINtNtB9_7ir_type11TypeGenericNtNtNtB2o_9type_meta4base8TypeMetaEEEE9free_varss1_0B9_
FNDA:0,_RNCNvMs1_NtCs3JxpW9MMjKx_10baml_types4exprINtB7_4ExprTNtNtCskfqWihpv58T_25internal_baml_diagnostics4span4SpanINtNtCs8dmkrYGpicx_4core6option6OptionINtNtB9_7ir_type11TypeGenericNtNtNtB2o_9type_meta4base8TypeMetaEEEE9free_varss_0B9_
FNDA:0,_RNCNvMs2_NtCs3JxpW9MMjKx_10baml_types4exprINtB7_4ExprpE4open0B9_
FNDA:0,_RNCNvMs2_NtCs3JxpW9MMjKx_10baml_types4exprINtB7_4ExprpE4opens0_0B9_
FNDA:0,_RNCNvMs2_NtCs3JxpW9MMjKx_10baml_types4exprINtB7_4ExprpE4opens1_0B9_
FNDA:0,_RNCNvMs2_NtCs3JxpW9MMjKx_10baml_types4exprINtB7_4ExprpE4opens2_0B9_
FNDA:0,_RNCNvMs2_NtCs3JxpW9MMjKx_10baml_types4exprINtB7_4ExprpE4opens3_0B9_
FNDA:0,_RNCNvMs2_NtCs3JxpW9MMjKx_10baml_types4exprINtB7_4ExprpE4opens_0B9_
FNDA:0,_RNCNvMs2_NtCs3JxpW9MMjKx_10baml_types4exprINtB7_4ExprpE5close0B9_
FNDA:0,_RNCNvMs2_NtCs3JxpW9MMjKx_10baml_types4exprINtB7_4ExprpE5closes0_0B9_
FNDA:0,_RNCNvMs2_NtCs3JxpW9MMjKx_10baml_types4exprINtB7_4ExprpE5closes1_0B9_
FNDA:0,_RNCNvMs2_NtCs3JxpW9MMjKx_10baml_types4exprINtB7_4ExprpE5closes2_0B9_
FNDA:0,_RNCNvMs2_NtCs3JxpW9MMjKx_10baml_types4exprINtB7_4ExprpE5closes3_0B9_
FNDA:0,_RNCNvMs2_NtCs3JxpW9MMjKx_10baml_types4exprINtB7_4ExprpE5closes_0B9_
FNDA:0,_RNvMNtCs3JxpW9MMjKx_10baml_types4exprNtB2_8VarIndex6deeper
FNDA:0,_RNvMNtCs3JxpW9MMjKx_10baml_types4exprNtB2_8VarIndex8dump_str
FNDA:0,_RNvMs0_NtCs3JxpW9MMjKx_10baml_types4exprINtB5_4ExprpE20temporary_same_stateB7_
FNDA:0,_RNvMs0_NtCs3JxpW9MMjKx_10baml_types4exprINtB5_4ExprpE8dump_strB7_
FNDA:0,_RNvMs1_NtCs3JxpW9MMjKx_10baml_types4exprINtB5_4ExprTNtNtCskfqWihpv58T_25internal_baml_diagnostics4span4SpanINtNtCs8dmkrYGpicx_4core6option6OptionINtNtB7_7ir_type11TypeGenericNtNtNtB2m_9type_meta4base8TypeMetaEEEE10fresh_name
FNDA:0,_RNvMs1_NtCs3JxpW9MMjKx_10baml_types4exprINtB5_4ExprTNtNtCskfqWihpv58T_25internal_baml_diagnostics4span4SpanINtNtCs8dmkrYGpicx_4core6option6OptionINtNtB7_7ir_type11TypeGenericNtNtNtB2m_9type_meta4base8TypeMetaEEEE11fresh_names
FNDA:0,_RNvMs1_NtCs3JxpW9MMjKx_10baml_types4exprINtB5_4ExprTNtNtCskfqWihpv58T_25internal_baml_diagnostics4span4SpanINtNtCs8dmkrYGpicx_4core6option6OptionINtNtB7_7ir_type11TypeGenericNtNtNtB2m_9type_meta4base8TypeMetaEEEE7as_atom
FNDA:0,_RNvMs1_NtCs3JxpW9MMjKx_10baml_types4exprINtB5_4ExprTNtNtCskfqWihpv58T_25internal_baml_diagnostics4span4SpanINtNtCs8dmkrYGpicx_4core6option6OptionINtNtB7_7ir_type11TypeGenericNtNtNtB2m_9type_meta4base8TypeMetaEEEE9free_vars
FNDA:0,_RNvMs2_NtCs3JxpW9MMjKx_10baml_types4exprINtB5_4ExprpE4openB7_
FNDA:0,_RNvMs2_NtCs3JxpW9MMjKx_10baml_types4exprINtB5_4ExprpE5closeB7_
FNDA:0,_RNvMs4_NtCs3JxpW9MMjKx_10baml_types4exprINtB5_12ExprIteratorpE3newB7_
FNDA:0,_RNvMs_NtCs3JxpW9MMjKx_10baml_types4exprINtB4_4ExprpE4metaB6_
FNDA:0,_RNvMs_NtCs3JxpW9MMjKx_10baml_types4exprINtB4_4ExprpE8meta_mutB6_
FNDA:0,_RNvMs_NtCs3JxpW9MMjKx_10baml_types4exprINtB4_4ExprpE9into_metaB6_
FNDA:0,_RNvXININtCs3JxpW9MMjKx_10baml_types4exprs3_0pERINtB5_4ExprpENtNtNtNtCs8dmkrYGpicx_4core4iter6traits7collect12IntoIterator9into_iterB7_
FNDA:0,_RNvXININtCs3JxpW9MMjKx_10baml_types4exprs5_0pEINtB5_12ExprIteratorpENtNtNtNtCs8dmkrYGpicx_4core4iter6traits8iterator8Iterator4nextB7_
FNF:45
FNH:0
DA:58,0
DA:59,0
DA:60,0
DA:61,0
DA:62,0
DA:63,0
DA:64,0
DA:65,0
DA:66,0
DA:73,0
DA:74,0
DA:75,0
DA:76,0
DA:77,0
DA:78,0
DA:79,0
DA:80,0
DA:81,0
DA:82,0
DA:83,0
DA:84,0
DA:85,0
DA:86,0
DA:87,0
DA:89,0
DA:91,0
DA:92,0
DA:93,0
DA:94,0
DA:95,0
DA:96,0
DA:97,0
DA:98,0
DA:99,0
DA:100,0
DA:101,0
DA:102,0
DA:103,0
DA:104,0
DA:105,0
DA:107,0
DA:109,0
DA:110,0
DA:111,0
DA:112,0
DA:113,0
DA:114,0
DA:115,0
DA:116,0
DA:117,0
DA:118,0
DA:119,0
DA:120,0
DA:121,0
DA:122,0
DA:123,0
DA:125,0
DA:130,0
DA:131,0
DA:132,0
DA:133,0
DA:134,0
DA:135,0
DA:136,0
DA:137,0
DA:138,0
DA:139,0
DA:140,0
DA:141,0
DA:142,0
DA:143,0
DA:144,0
DA:146,0
DA:147,0
DA:148,0
DA:149,0
DA:150,0
DA:152,0
DA:154,0
DA:155,0
DA:157,0
DA:158,0
DA:159,0
DA:160,0
DA:161,0
DA:162,0
DA:163,0
DA:164,0
DA:165,0
DA:166,0
DA:168,0
DA:169,0
DA:170,0
DA:171,0
DA:172,0
DA:173,0
DA:174,0
DA:177,0
DA:178,0
DA:179,0
DA:180,0
DA:181,0
DA:182,0
DA:183,0
DA:184,0
DA:185,0
DA:186,0
DA:187,0
DA:188,0
DA:189,0
DA:191,0
DA:193,0
DA:194,0
DA:195,0
DA:196,0
DA:197,0
DA:198,0
DA:199,0
DA:202,0
DA:203,0
DA:204,0
DA:205,0
DA:206,0
DA:207,0
DA:208,0
DA:209,0
DA:210,0
DA:211,0
DA:212,0
DA:215,0
DA:220,0
DA:221,0
DA:222,0
DA:223,0
DA:225,0
DA:226,0
DA:228,0
DA:229,0
DA:231,0
DA:232,0
DA:234,0
DA:235,0
DA:237,0
DA:239,0
DA:240,0
DA:242,0
DA:244,0
DA:245,0
DA:247,0
DA:249,0
DA:250,0
DA:251,0
DA:252,0
DA:253,0
DA:254,0
DA:256,0
DA:260,0
DA:261,0
DA:262,0
DA:263,0
DA:264,0
DA:265,0
DA:266,0
DA:267,0
DA:268,0
DA:269,0
DA:270,0
DA:271,0
DA:272,0
DA:273,0
DA:274,0
DA:275,0
DA:276,0
DA:277,0
DA:278,0
DA:279,0
DA:280,0
DA:281,0
DA:284,0
DA:286,0
DA:287,0
DA:288,0
DA:289,0
DA:290,0
DA:291,0
DA:293,0
DA:295,0
DA:296,0
DA:297,0
DA:298,0
DA:299,0
DA:300,0
DA:302,0
DA:304,0
DA:305,0
DA:306,0
DA:307,0
DA:308,0
DA:310,0
DA:312,0
DA:315,0
DA:316,0
DA:317,0
DA:318,0
DA:319,0
DA:320,0
DA:321,0
DA:322,0
DA:323,0
DA:324,0
DA:325,0
DA:326,0
DA:327,0
DA:329,0
DA:336,0
DA:337,0
DA:338,0
DA:339,0
DA:340,0
DA:341,0
DA:342,0
DA:343,0
DA:344,0
DA:346,0
DA:347,0
DA:348,0
DA:349,0
DA:350,0
DA:351,0
DA:352,0
DA:353,0
DA:354,0
DA:358,0
DA:359,0
DA:360,0
DA:361,0
DA:362,0
DA:363,0
DA:364,0
DA:366,0
DA:367,0
DA:368,0
DA:369,0
DA:370,0
DA:371,0
DA:372,0
DA:373,0
DA:374,0
DA:375,0
DA:376,0
DA:377,0
DA:380,0
DA:382,0
DA:384,0
DA:385,0
DA:386,0
DA:387,0
DA:388,0
DA:389,0
DA:390,0
DA:391,0
DA:392,0
DA:393,0
DA:394,0
DA:395,0
DA:396,0
DA:397,0
DA:398,0
DA:399,0
DA:400,0
DA:402,0
DA:403,0
DA:404,0
DA:405,0
DA:406,0
DA:407,0
DA:408,0
DA:409,0
DA:411,0
DA:412,0
DA:413,0
DA:414,0
DA:416,0
DA:417,0
DA:418,0
DA:419,0
DA:420,0
DA:421,0
DA:422,0
DA:424,0
DA:426,0
DA:427,0
DA:428,0
DA:429,0
DA:430,0
DA:431,0
DA:432,0
DA:433,0
DA:434,0
DA:437,0
DA:439,0
DA:440,0
DA:441,0
DA:442,0
DA:443,0
DA:444,0
DA:445,0
DA:446,0
DA:447,0
DA:448,0
DA:450,0
DA:451,0
DA:453,0
DA:454,0
DA:455,0
DA:461,0
DA:462,0
DA:463,0
DA:464,0
DA:465,0
DA:466,0
DA:467,0
DA:468,0
DA:469,0
DA:470,0
DA:471,0
DA:472,0
DA:473,0
DA:474,0
DA:476,0
DA:477,0
DA:478,0
DA:479,0
DA:480,0
DA:481,0
DA:482,0
DA:483,0
DA:484,0
DA:485,0
DA:486,0
DA:487,0
DA:488,0
DA:489,0
DA:490,0
DA:491,0
DA:492,0
DA:493,0
DA:495,0
DA:498,0
DA:499,0
DA:500,0
DA:501,0
DA:502,0
DA:503,0
DA:504,0
DA:505,0
DA:506,0
DA:507,0
DA:508,0
DA:509,0
DA:510,0
DA:511,0
DA:512,0
DA:513,0
DA:514,0
DA:515,0
DA:516,0
DA:517,0
DA:518,0
DA:519,0
DA:520,0
DA:521,0
DA:522,0
DA:523,0
DA:525,0
DA:526,0
DA:527,0
DA:528,0
DA:529,0
DA:530,0
DA:531,0
DA:532,0
DA:533,0
DA:534,0
DA:536,0
DA:540,0
DA:541,0
DA:542,0
DA:543,0
DA:544,0
DA:545,0
DA:546,0
DA:547,0
DA:548,0
DA:549,0
DA:550,0
DA:551,0
DA:552,0
DA:553,0
DA:555,0
DA:556,0
DA:557,0
DA:558,0
DA:559,0
DA:560,0
DA:561,0
DA:562,0
DA:563,0
DA:564,0
DA:565,0
DA:566,0
DA:567,0
DA:568,0
DA:569,0
DA:570,0
DA:571,0
DA:572,0
DA:573,0
DA:575,0
DA:578,0
DA:579,0
DA:580,0
DA:581,0
DA:582,0
DA:583,0
DA:584,0
DA:585,0
DA:586,0
DA:587,0
DA:588,0
DA:589,0
DA:590,0
DA:591,0
DA:592,0
DA:593,0
DA:594,0
DA:595,0
DA:596,0
DA:597,0
DA:598,0
DA:599,0
DA:600,0
DA:601,0
DA:602,0
DA:603,0
DA:604,0
DA:606,0
DA:607,0
DA:608,0
DA:609,0
DA:610,0
DA:611,0
DA:612,0
DA:613,0
DA:614,0
DA:615,0
DA:617,0
DA:625,0
DA:626,0
DA:627,0
DA:636,0
DA:637,0
DA:638,0
DA:639,0
DA:640,0
DA:646,0
DA:647,0
DA:649,0
DA:650,0
DA:651,0
DA:652,0
DA:653,0
DA:654,0
DA:656,0
DA:657,0
DA:658,0
DA:659,0
DA:661,0
DA:662,0
DA:663,0
DA:664,0
DA:665,0
DA:666,0
DA:667,0
DA:669,0
DA:670,0
DA:671,0
DA:672,0
DA:673,0
DA:674,0
DA:675,0
DA:676,0
DA:677,0
DA:678,0
DA:679,0
DA:680,0
DA:681,0
DA:682,0
DA:683,0
DA:684,0
DA:686,0
DA:687,0
DA:688,0
DA:689,0
DA:690,0
DA:691,0
DA:692,0
DA:693,0
DA:695,0
DA:696,0
DA:697,0
DA:698,0
DA:700,0
DA:702,0
DA:704,0
BRF:0
BRH:0
LF:546
LH:0
end_of_record
SF:/Users/rahul/code/rust/baml/engine/baml-lib/baml-types/src/generator.rs
FN:37,_RINvXNtCs3JxpW9MMjKx_10baml_types9generatorNtB3_19GeneratorOutputTypeNtNtCs8dmkrYGpicx_4core4hash4Hash4hashpEB5_
FN:43,_RNvMs_NtCs3JxpW9MMjKx_10baml_types9generatorNtB4_19GeneratorOutputType19default_client_mode
FN:60,_RNvMs_NtCs3JxpW9MMjKx_10baml_types9generatorNtB4_19GeneratorOutputType31recommended_default_client_mode
FN:74,_RNvXs0_NtCs3JxpW9MMjKx_10baml_types9generatorNtB5_19GeneratorOutputTypeNtNtCs1iNRdu20hje_12clap_builder6derive9ValueEnum14value_variants
FN:79,_RNvXs0_NtCs3JxpW9MMjKx_10baml_types9generatorNtB5_19GeneratorOutputTypeNtNtCs1iNRdu20hje_12clap_builder6derive9ValueEnum17to_possible_value
FN:7,_RNvXs8_NtCs3JxpW9MMjKx_10baml_types9generatorNtB5_19GeneratorOutputTypeINtNtCs8dmkrYGpicx_4core7convert7TryFromReE8try_from
FN:86,_RNvXsi_NtCs3JxpW9MMjKx_10baml_types9generatorNtB5_26GeneratorDefaultClientModeINtNtCs8dmkrYGpicx_4core7convert7TryFromReE8try_from
FNDA:0,_RINvXNtCs3JxpW9MMjKx_10baml_types9generatorNtB3_19GeneratorOutputTypeNtNtCs8dmkrYGpicx_4core4hash4Hash4hashpEB5_
FNDA:0,_RNvMs_NtCs3JxpW9MMjKx_10baml_types9generatorNtB4_19GeneratorOutputType19default_client_mode
FNDA:0,_RNvMs_NtCs3JxpW9MMjKx_10baml_types9generatorNtB4_19GeneratorOutputType31recommended_default_client_mode
FNDA:0,_RNvXs0_NtCs3JxpW9MMjKx_10baml_types9generatorNtB5_19GeneratorOutputTypeNtNtCs1iNRdu20hje_12clap_builder6derive9ValueEnum14value_variants
FNDA:0,_RNvXs0_NtCs3JxpW9MMjKx_10baml_types9generatorNtB5_19GeneratorOutputTypeNtNtCs1iNRdu20hje_12clap_builder6derive9ValueEnum17to_possible_value
FNDA:0,_RNvXs8_NtCs3JxpW9MMjKx_10baml_types9generatorNtB5_19GeneratorOutputTypeINtNtCs8dmkrYGpicx_4core7convert7TryFromReE8try_from
FNDA:0,_RNvXsi_NtCs3JxpW9MMjKx_10baml_types9generatorNtB5_26GeneratorDefaultClientModeINtNtCs8dmkrYGpicx_4core7convert7TryFromReE8try_from
FNF:7
FNH:0
DA:7,0
DA:37,0
DA:38,0
DA:39,0
DA:43,0
DA:44,0
DA:45,0
DA:48,0
DA:50,0
DA:52,0
DA:53,0
DA:54,0
DA:55,0
DA:57,0
DA:60,0
DA:61,0
DA:62,0
DA:63,0
DA:64,0
DA:65,0
DA:66,0
DA:67,0
DA:68,0
DA:70,0
DA:74,0
DA:76,0
DA:77,0
DA:79,0
DA:80,0
DA:81,0
DA:82,0
DA:83,0
DA:86,0
BRF:0
BRH:0
LF:33
LH:0
end_of_record
SF:/Users/rahul/code/rust/baml/engine/baml-lib/baml-types/src/ir_type/builder.rs
FN:75,_RINvMNtNtCs3JxpW9MMjKx_10baml_types7ir_type7builderINtB5_11TypeGenericNtNtNtB5_9type_meta4base8TypeMetaE5classReEB7_
FN:33,_RNvMNtNtCs3JxpW9MMjKx_10baml_types7ir_type7builderINtB4_11TypeGenericNtNtNtB4_9type_meta4base8TypeMetaE13int_with_metaB6_
FN:38,_RNvMNtNtCs3JxpW9MMjKx_10baml_types7ir_type7builderINtB4_11TypeGenericNtNtNtB4_9type_meta4base8TypeMetaE15float_with_metaB6_
FN:43,_RNvMNtNtCs3JxpW9MMjKx_10baml_types7ir_type7builderINtB4_11TypeGenericNtNtNtB4_9type_meta4base8TypeMetaE16string_with_metaB6_
FN:28,_RNvMNtNtCs3JxpW9MMjKx_10baml_types7ir_type7builderINtB4_11TypeGenericNtNtNtB4_9type_meta4base8TypeMetaE3intB6_
FN:55,_RNvMNtNtCs3JxpW9MMjKx_10baml_types7ir_type7builderINtB4_11TypeGenericNtNtNtB4_9type_meta4base8TypeMetaE4nullB6_
FN:47,_RNvMNtNtCs3JxpW9MMjKx_10baml_types7ir_type7builderINtB4_11TypeGenericNtNtNtB4_9type_meta4base8TypeMetaE5floatB6_
FN:4,_RNvMNtNtCs3JxpW9MMjKx_10baml_types7ir_type7builderINtB4_11TypeGenericNtNtNtB4_9type_meta4base8TypeMetaE6stringB6_
FN:55,_RNvMNtNtCs3JxpW9MMjKx_10baml_types7ir_type7builderINtB4_11TypeGenericNtNtNtB4_9type_meta6stream17TypeMetaStreamingE4nullB6_
FN:8,_RINvMNtNtCs3JxpW9MMjKx_10baml_types7ir_type7builderINtB5_11TypeGenericpE20recursive_type_aliaspEB7_
FN:12,_RINvMNtNtCs3JxpW9MMjKx_10baml_types7ir_type7builderINtB5_11TypeGenericpE7literalpEB7_
FN:20,_RNvMNtNtCs3JxpW9MMjKx_10baml_types7ir_type7builderINtB4_11TypeGenericpE11literal_intB6_
FN:24,_RNvMNtNtCs3JxpW9MMjKx_10baml_types7ir_type7builderINtB4_11TypeGenericpE12literal_boolB6_
FN:16,_RNvMNtNtCs3JxpW9MMjKx_10baml_types7ir_type7builderINtB4_11TypeGenericpE14literal_stringB6_
FN:92,_RNvMNtNtCs3JxpW9MMjKx_10baml_types7ir_type7builderINtB4_11TypeGenericpE3mapB6_
FN:51,_RNvMNtNtCs3JxpW9MMjKx_10baml_types7ir_type7builderINtB4_11TypeGenericpE4boolB6_
FN:67,_RNvMNtNtCs3JxpW9MMjKx_10baml_types7ir_type7builderINtB4_11TypeGenericpE4enumB6_
FN:84,_RNvMNtNtCs3JxpW9MMjKx_10baml_types7ir_type7builderINtB4_11TypeGenericpE4listB6_
FN:63,_RNvMNtNtCs3JxpW9MMjKx_10baml_types7ir_type7builderINtB4_11TypeGenericpE5audioB6_
FN:59,_RNvMNtNtCs3JxpW9MMjKx_10baml_types7ir_type7builderINtB4_11TypeGenericpE5imageB6_
FN:96,_RNvMNtNtCs3JxpW9MMjKx_10baml_types7ir_type7builderINtB4_11TypeGenericpE5tupleB6_
FN:88,_RNvMNtNtCs3JxpW9MMjKx_10baml_types7ir_type7builderINtB4_11TypeGenericpE7as_listB6_
FNDA:2,_RINvMNtNtCs3JxpW9MMjKx_10baml_types7ir_type7builderINtB5_11TypeGenericNtNtNtB5_9type_meta4base8TypeMetaE5classReEB7_
FNDA:7,_RNvMNtNtCs3JxpW9MMjKx_10baml_types7ir_type7builderINtB4_11TypeGenericNtNtNtB4_9type_meta4base8TypeMetaE13int_with_metaB6_
FNDA:2,_RNvMNtNtCs3JxpW9MMjKx_10baml_types7ir_type7builderINtB4_11TypeGenericNtNtNtB4_9type_meta4base8TypeMetaE15float_with_metaB6_
FNDA:3,_RNvMNtNtCs3JxpW9MMjKx_10baml_types7ir_type7builderINtB4_11TypeGenericNtNtNtB4_9type_meta4base8TypeMetaE16string_with_metaB6_
FNDA:19,_RNvMNtNtCs3JxpW9MMjKx_10baml_types7ir_type7builderINtB4_11TypeGenericNtNtNtB4_9type_meta4base8TypeMetaE3intB6_
FNDA:136,_RNvMNtNtCs3JxpW9MMjKx_10baml_types7ir_type7builderINtB4_11TypeGenericNtNtNtB4_9type_meta4base8TypeMetaE4nullB6_
FNDA:2,_RNvMNtNtCs3JxpW9MMjKx_10baml_types7ir_type7builderINtB4_11TypeGenericNtNtNtB4_9type_meta4base8TypeMetaE5floatB6_
FNDA:11,_RNvMNtNtCs3JxpW9MMjKx_10baml_types7ir_type7builderINtB4_11TypeGenericNtNtNtB4_9type_meta4base8TypeMetaE6stringB6_
FNDA:17,_RNvMNtNtCs3JxpW9MMjKx_10baml_types7ir_type7builderINtB4_11TypeGenericNtNtNtB4_9type_meta6stream17TypeMetaStreamingE4nullB6_
FNDA:0,_RINvMNtNtCs3JxpW9MMjKx_10baml_types7ir_type7builderINtB5_11TypeGenericpE20recursive_type_aliaspEB7_
FNDA:0,_RINvMNtNtCs3JxpW9MMjKx_10baml_types7ir_type7builderINtB5_11TypeGenericpE7literalpEB7_
FNDA:0,_RNvMNtNtCs3JxpW9MMjKx_10baml_types7ir_type7builderINtB4_11TypeGenericpE11literal_intB6_
FNDA:0,_RNvMNtNtCs3JxpW9MMjKx_10baml_types7ir_type7builderINtB4_11TypeGenericpE12literal_boolB6_
FNDA:0,_RNvMNtNtCs3JxpW9MMjKx_10baml_types7ir_type7builderINtB4_11TypeGenericpE14literal_stringB6_
FNDA:0,_RNvMNtNtCs3JxpW9MMjKx_10baml_types7ir_type7builderINtB4_11TypeGenericpE3mapB6_
FNDA:0,_RNvMNtNtCs3JxpW9MMjKx_10baml_types7ir_type7builderINtB4_11TypeGenericpE4boolB6_
FNDA:0,_RNvMNtNtCs3JxpW9MMjKx_10baml_types7ir_type7builderINtB4_11TypeGenericpE4enumB6_
FNDA:0,_RNvMNtNtCs3JxpW9MMjKx_10baml_types7ir_type7builderINtB4_11TypeGenericpE4listB6_
FNDA:0,_RNvMNtNtCs3JxpW9MMjKx_10baml_types7ir_type7builderINtB4_11TypeGenericpE5audioB6_
FNDA:0,_RNvMNtNtCs3JxpW9MMjKx_10baml_types7ir_type7builderINtB4_11TypeGenericpE5imageB6_
FNDA:0,_RNvMNtNtCs3JxpW9MMjKx_10baml_types7ir_type7builderINtB4_11TypeGenericpE5tupleB6_
FNDA:0,_RNvMNtNtCs3JxpW9MMjKx_10baml_types7ir_type7builderINtB4_11TypeGenericpE7as_listB6_
FNF:21
FNH:8
DA:4,11
DA:5,11
DA:6,11
DA:8,0
DA:9,0
DA:10,0
DA:12,0
DA:13,0
DA:14,0
DA:16,0
DA:17,0
DA:18,0
DA:20,0
DA:21,0
DA:22,0
DA:24,0
DA:25,0
DA:26,0
DA:28,19
DA:29,19
DA:30,19
DA:33,7
DA:34,7
DA:35,7
DA:38,2
DA:39,2
DA:40,2
DA:43,3
DA:44,3
DA:45,3
DA:47,2
DA:48,2
DA:49,2
DA:51,0
DA:52,0
DA:53,0
DA:55,153
DA:56,153
DA:57,153
DA:59,0
DA:60,0
DA:61,0
DA:63,0
DA:64,0
DA:65,0
DA:67,0
DA:68,0
DA:69,0
DA:70,0
DA:71,0
DA:72,0
DA:73,0
DA:75,2
DA:76,2
DA:77,2
DA:78,2
DA:79,2
DA:80,2
DA:81,2
DA:82,2
DA:84,0
DA:85,0
DA:86,0
DA:88,0
DA:89,0
DA:90,0
DA:92,0
DA:93,0
DA:94,0
DA:96,0
DA:97,0
DA:98,0
BRF:0
BRH:0
LF:72
LH:29
end_of_record
SF:/Users/rahul/code/rust/baml/engine/baml-lib/baml-types/src/ir_type/display.rs
FN:50,_RNCNvXNtNtCs3JxpW9MMjKx_10baml_types7ir_type7displayINtB6_11TypeGenericNtNtNtB6_9type_meta6stream17TypeMetaStreamingENtNtCs8dmkrYGpicx_4core3fmt7Display3fmt0B8_
FN:70,_RNCNvXNtNtCs3JxpW9MMjKx_10baml_types7ir_type7displayINtB6_11TypeGenericNtNtNtB6_9type_meta6stream17TypeMetaStreamingENtNtCs8dmkrYGpicx_4core3fmt7Display3fmts0_0B8_
FN:83,_RNCNvXNtNtCs3JxpW9MMjKx_10baml_types7ir_type7displayINtB6_11TypeGenericNtNtNtB6_9type_meta6stream17TypeMetaStreamingENtNtCs8dmkrYGpicx_4core3fmt7Display3fmts1_0B8_
FN:56,_RNCNvXNtNtCs3JxpW9MMjKx_10baml_types7ir_type7displayINtB6_11TypeGenericNtNtNtB6_9type_meta6stream17TypeMetaStreamingENtNtCs8dmkrYGpicx_4core3fmt7Display3fmts_0B8_
FN:6,_RNvXNtNtCs3JxpW9MMjKx_10baml_types7ir_type7displayINtB4_11TypeGenericNtNtNtB4_9type_meta6stream17TypeMetaStreamingENtNtCs8dmkrYGpicx_4core3fmt7Display3fmt
FN:143,_RNCNvXs_NtNtCs3JxpW9MMjKx_10baml_types7ir_type7displayINtB8_11TypeGenericNtNtNtB8_9type_meta4base8TypeMetaENtNtCs8dmkrYGpicx_4core3fmt7Display3fmt0Ba_
FN:163,_RNCNvXs_NtNtCs3JxpW9MMjKx_10baml_types7ir_type7displayINtB8_11TypeGenericNtNtNtB8_9type_meta4base8TypeMetaENtNtCs8dmkrYGpicx_4core3fmt7Display3fmts0_0Ba_
FN:176,_RNCNvXs_NtNtCs3JxpW9MMjKx_10baml_types7ir_type7displayINtB8_11TypeGenericNtNtNtB8_9type_meta4base8TypeMetaENtNtCs8dmkrYGpicx_4core3fmt7Display3fmts1_0Ba_
FN:149,_RNCNvXs_NtNtCs3JxpW9MMjKx_10baml_types7ir_type7displayINtB8_11TypeGenericNtNtNtB8_9type_meta4base8TypeMetaENtNtCs8dmkrYGpicx_4core3fmt7Display3fmts_0Ba_
FN:96,_RNvXs_NtNtCs3JxpW9MMjKx_10baml_types7ir_type7displayINtB6_11TypeGenericNtNtNtB6_9type_meta4base8TypeMetaENtNtCs8dmkrYGpicx_4core3fmt7Display3fmt
FNDA:0,_RNCNvXNtNtCs3JxpW9MMjKx_10baml_types7ir_type7displayINtB6_11TypeGenericNtNtNtB6_9type_meta6stream17TypeMetaStreamingENtNtCs8dmkrYGpicx_4core3fmt7Display3fmt0B8_
FNDA:0,_RNCNvXNtNtCs3JxpW9MMjKx_10baml_types7ir_type7displayINtB6_11TypeGenericNtNtNtB6_9type_meta6stream17TypeMetaStreamingENtNtCs8dmkrYGpicx_4core3fmt7Display3fmts0_0B8_
FNDA:0,_RNCNvXNtNtCs3JxpW9MMjKx_10baml_types7ir_type7displayINtB6_11TypeGenericNtNtNtB6_9type_meta6stream17TypeMetaStreamingENtNtCs8dmkrYGpicx_4core3fmt7Display3fmts1_0B8_
FNDA:0,_RNCNvXNtNtCs3JxpW9MMjKx_10baml_types7ir_type7displayINtB6_11TypeGenericNtNtNtB6_9type_meta6stream17TypeMetaStreamingENtNtCs8dmkrYGpicx_4core3fmt7Display3fmts_0B8_
FNDA:0,_RNvXNtNtCs3JxpW9MMjKx_10baml_types7ir_type7displayINtB4_11TypeGenericNtNtNtB4_9type_meta6stream17TypeMetaStreamingENtNtCs8dmkrYGpicx_4core3fmt7Display3fmt
FNDA:0,_RNCNvXs_NtNtCs3JxpW9MMjKx_10baml_types7ir_type7displayINtB8_11TypeGenericNtNtNtB8_9type_meta4base8TypeMetaENtNtCs8dmkrYGpicx_4core3fmt7Display3fmt0Ba_
FNDA:0,_RNCNvXs_NtNtCs3JxpW9MMjKx_10baml_types7ir_type7displayINtB8_11TypeGenericNtNtNtB8_9type_meta4base8TypeMetaENtNtCs8dmkrYGpicx_4core3fmt7Display3fmts0_0Ba_
FNDA:0,_RNCNvXs_NtNtCs3JxpW9MMjKx_10baml_types7ir_type7displayINtB8_11TypeGenericNtNtNtB8_9type_meta4base8TypeMetaENtNtCs8dmkrYGpicx_4core3fmt7Display3fmts1_0Ba_
FNDA:0,_RNCNvXs_NtNtCs3JxpW9MMjKx_10baml_types7ir_type7displayINtB8_11TypeGenericNtNtNtB8_9type_meta4base8TypeMetaENtNtCs8dmkrYGpicx_4core3fmt7Display3fmts_0Ba_
FNDA:0,_RNvXs_NtNtCs3JxpW9MMjKx_10baml_types7ir_type7displayINtB6_11TypeGenericNtNtNtB6_9type_meta4base8TypeMetaENtNtCs8dmkrYGpicx_4core3fmt7Display3fmt
FNF:10
FNH:0
DA:6,0
DA:7,0
DA:9,0
DA:11,0
DA:12,0
DA:13,0
DA:15,0
DA:16,0
DA:17,0
DA:19,0
DA:20,0
DA:21,0
DA:24,0
DA:25,0
DA:26,0
DA:27,0
DA:28,0
DA:29,0
DA:31,0
DA:32,0
DA:33,0
DA:35,0
DA:36,0
DA:37,0
DA:38,0
DA:39,0
DA:40,0
DA:41,0
DA:42,0
DA:43,0
DA:44,0
DA:45,0
DA:46,0
DA:48,0
DA:49,0
DA:50,0
DA:51,0
DA:52,0
DA:53,0
DA:54,0
DA:55,0
DA:56,0
DA:57,0
DA:58,0
DA:59,0
DA:62,0
DA:64,0
DA:65,0
DA:66,0
DA:67,0
DA:68,0
DA:69,0
DA:70,0
DA:71,0
DA:72,0
DA:73,0
DA:75,0
DA:76,0
DA:77,0
DA:78,0
DA:79,0
DA:80,0
DA:81,0
DA:82,0
DA:83,0
DA:84,0
DA:85,0
DA:86,0
DA:87,0
DA:88,0
DA:90,0
DA:91,0
DA:96,0
DA:97,0
DA:99,0
DA:101,0
DA:102,0
DA:103,0
DA:105,0
DA:106,0
DA:107,0
DA:109,0
DA:110,0
DA:111,0
DA:114,0
DA:115,0
DA:116,0
DA:117,0
DA:118,0
DA:119,0
DA:120,0
DA:121,0
DA:122,0
DA:123,0
DA:124,0
DA:125,0
DA:126,0
DA:128,0
DA:129,0
DA:130,0
DA:131,0
DA:132,0
DA:133,0
DA:134,0
DA:135,0
DA:136,0
DA:137,0
DA:138,0
DA:139,0
DA:141,0
DA:142,0
DA:143,0
DA:144,0
DA:145,0
DA:146,0
DA:147,0
DA:148,0
DA:149,0
DA:150,0
DA:151,0
DA:152,0
DA:155,0
DA:157,0
DA:158,0
DA:159,0
DA:160,0
DA:161,0
DA:162,0
DA:163,0
DA:164,0
DA:165,0
DA:166,0
DA:168,0
DA:169,0
DA:170,0
DA:171,0
DA:172,0
DA:173,0
DA:174,0
DA:175,0
DA:176,0
DA:177,0
DA:178,0
DA:179,0
DA:180,0
DA:181,0
DA:183,0
DA:184,0
BRF:0
BRH:0
LF:156
LH:0
end_of_record
SF:/Users/rahul/code/rust/baml/engine/baml-lib/baml-types/src/ir_type/mod.rs
FN:198,_RNCNvMs5_NtCs3JxpW9MMjKx_10baml_types7ir_typeINtB7_20UnionTypeViewGenericNtNtNtB7_9type_meta4base8TypeMetaE7flatten0B9_
FN:202,_RNCNvMs5_NtCs3JxpW9MMjKx_10baml_types7ir_typeINtB7_20UnionTypeViewGenericNtNtNtB7_9type_meta4base8TypeMetaE7flattens_0B9_
FN:227,_RNCNvMs6_NtCs3JxpW9MMjKx_10baml_types7ir_typeINtB7_16UnionTypeGenericNtNtNtB7_9type_meta4base8TypeMetaE4view0B9_
FN:227,_RNCNvMs6_NtCs3JxpW9MMjKx_10baml_types7ir_typeINtB7_16UnionTypeGenericNtNtNtB7_9type_meta6stream17TypeMetaStreamingE4view0B9_
FN:655,_RNCNvMsa_NtCs3JxpW9MMjKx_10baml_types7ir_typeINtB7_11TypeGenericNtNtNtB7_9type_meta4base8TypeMetaE8simplify0B9_
FN:662,_RNCNvMsa_NtCs3JxpW9MMjKx_10baml_types7ir_typeINtB7_11TypeGenericNtNtNtB7_9type_meta4base8TypeMetaE8simplifys_0B9_
FN:550,_RNCNvNvMs9_NtCs3JxpW9MMjKx_10baml_types7ir_typeINtB9_11TypeGenericNtNtNtB9_9type_meta4base8TypeMetaE10partialize17partialize_helper0Bb_
FN:567,_RNCNvNvMs9_NtCs3JxpW9MMjKx_10baml_types7ir_typeINtB9_11TypeGenericNtNtNtB9_9type_meta4base8TypeMetaE10partialize17partialize_helpers0_0Bb_
FN:559,_RNCNvNvMs9_NtCs3JxpW9MMjKx_10baml_types7ir_typeINtB9_11TypeGenericNtNtNtB9_9type_meta4base8TypeMetaE10partialize17partialize_helpers_0Bb_
FN:189,_RNvMs5_NtCs3JxpW9MMjKx_10baml_types7ir_typeINtB5_20UnionTypeViewGenericNtNtNtB5_9type_meta4base8TypeMetaE7flattenB7_
FN:278,_RNvMs6_NtCs3JxpW9MMjKx_10baml_types7ir_typeINtB5_16UnionTypeGenericNtNtNtB5_9type_meta4base8TypeMetaE14iter_skip_nullB7_
FN:223,_RNvMs6_NtCs3JxpW9MMjKx_10baml_types7ir_typeINtB5_16UnionTypeGenericNtNtNtB5_9type_meta4base8TypeMetaE4viewB7_
FN:210,_RNvMs6_NtCs3JxpW9MMjKx_10baml_types7ir_typeINtB5_16UnionTypeGenericNtNtNtB5_9type_meta6stream17TypeMetaStreamingE11is_optionalB7_
FN:278,_RNvMs6_NtCs3JxpW9MMjKx_10baml_types7ir_typeINtB5_16UnionTypeGenericNtNtNtB5_9type_meta6stream17TypeMetaStreamingE14iter_skip_nullB7_
FN:223,_RNvMs6_NtCs3JxpW9MMjKx_10baml_types7ir_typeINtB5_16UnionTypeGenericNtNtNtB5_9type_meta6stream17TypeMetaStreamingE4viewB7_
FN:349,_RNvMs8_NtCs3JxpW9MMjKx_10baml_types7ir_typeINtB5_11TypeGenericNtNtNtB5_9type_meta4base8TypeMetaE4metaB7_
FN:324,_RNvMs8_NtCs3JxpW9MMjKx_10baml_types7ir_typeINtB5_11TypeGenericNtNtNtB5_9type_meta4base8TypeMetaE7flattenB7_
FN:401,_RNvMs8_NtCs3JxpW9MMjKx_10baml_types7ir_typeINtB5_11TypeGenericNtNtNtB5_9type_meta4base8TypeMetaE7is_nullB7_
FN:364,_RNvMs8_NtCs3JxpW9MMjKx_10baml_types7ir_typeINtB5_11TypeGenericNtNtNtB5_9type_meta4base8TypeMetaE8meta_mutB7_
FN:390,_RNvMs8_NtCs3JxpW9MMjKx_10baml_types7ir_typeINtB5_11TypeGenericNtNtNtB5_9type_meta6stream17TypeMetaStreamingE11is_optionalB7_
FN:349,_RNvMs8_NtCs3JxpW9MMjKx_10baml_types7ir_typeINtB5_11TypeGenericNtNtNtB5_9type_meta6stream17TypeMetaStreamingE4metaB7_
FN:401,_RNvMs8_NtCs3JxpW9MMjKx_10baml_types7ir_typeINtB5_11TypeGenericNtNtNtB5_9type_meta6stream17TypeMetaStreamingE7is_nullB7_
FN:364,_RNvMs8_NtCs3JxpW9MMjKx_10baml_types7ir_typeINtB5_11TypeGenericNtNtNtB5_9type_meta6stream17TypeMetaStreamingE8meta_mutB7_
FN:247,_RNCNvMs6_NtCs3JxpW9MMjKx_10baml_types7ir_typeINtB7_16UnionTypeGenericpE8view_mut0B9_
FN:761,_RNCNvXsb_NtCs3JxpW9MMjKx_10baml_types7ir_typeINtB7_11TypeGenericNtNtNtB7_9type_meta4base8TypeMetaENtB7_11ToUnionName13to_union_name0B9_
FN:798,_RNCNvXsb_NtCs3JxpW9MMjKx_10baml_types7ir_typeINtB7_11TypeGenericNtNtNtB7_9type_meta4base8TypeMetaENtB7_11ToUnionName13to_union_names0_0B9_
FN:787,_RNCNvXsb_NtCs3JxpW9MMjKx_10baml_types7ir_typeINtB7_11TypeGenericNtNtNtB7_9type_meta4base8TypeMetaENtB7_11ToUnionName13to_union_names_0B9_
FN:748,_RNCNvXsb_NtCs3JxpW9MMjKx_10baml_types7ir_typeINtB7_11TypeGenericNtNtNtB7_9type_meta4base8TypeMetaENtB7_11ToUnionName16find_union_types0B9_
FN:122,_RNvMs3_NtCs3JxpW9MMjKx_10baml_types7ir_typeNtB5_12LiteralValue17literal_base_type
FN:287,_RNvMs6_NtCs3JxpW9MMjKx_10baml_types7ir_typeINtB5_16UnionTypeGenericpE17iter_include_nullB7_
FN:269,_RNvMs6_NtCs3JxpW9MMjKx_10baml_types7ir_typeINtB5_16UnionTypeGenericpE18iter_skip_null_mutB7_
FN:219,_RNvMs6_NtCs3JxpW9MMjKx_10baml_types7ir_typeINtB5_16UnionTypeGenericpE8add_typeB7_
FN:242,_RNvMs6_NtCs3JxpW9MMjKx_10baml_types7ir_typeINtB5_16UnionTypeGenericpE8view_mutB7_
FN:409,_RNvMs8_NtCs3JxpW9MMjKx_10baml_types7ir_typeINtB5_11TypeGenericpE12dependenciesB7_
FN:382,_RNvMs8_NtCs3JxpW9MMjKx_10baml_types7ir_typeINtB5_11TypeGenericpE12is_primitiveB7_
FN:334,_RNvMs8_NtCs3JxpW9MMjKx_10baml_types7ir_typeINtB5_11TypeGenericpE8set_metaB7_
FN:67,_RNvXNtCs3JxpW9MMjKx_10baml_types7ir_typeNtB2_9TypeValueNtNtNtCs8dmkrYGpicx_4core3str6traits7FromStr8from_str
FN:104,_RNvXs0_NtCs3JxpW9MMjKx_10baml_types7ir_typeNtB5_12LiteralValueINtNtCs8dmkrYGpicx_4core7convert4FromxE4from
FN:110,_RNvXs1_NtCs3JxpW9MMjKx_10baml_types7ir_typeNtB5_12LiteralValueINtNtCs8dmkrYGpicx_4core7convert4FrombE4from
FN:116,_RNvXs2_NtCs3JxpW9MMjKx_10baml_types7ir_typeNtB5_12LiteralValueINtNtCs8dmkrYGpicx_4core7convert4FromReE4from
FN:301,_RNvXs7_NtCs3JxpW9MMjKx_10baml_types7ir_typeINtB5_11TypeGenericNtNtNtB5_9type_meta4base8TypeMetaENtB5_12HasFieldType10field_type
FN:752,_RNvXsb_NtCs3JxpW9MMjKx_10baml_types7ir_typeINtB5_11TypeGenericNtNtNtB5_9type_meta4base8TypeMetaENtB5_11ToUnionName13to_union_name
FN:731,_RNvXsb_NtCs3JxpW9MMjKx_10baml_types7ir_typeINtB5_11TypeGenericNtNtNtB5_9type_meta4base8TypeMetaENtB5_11ToUnionName16find_union_types
FN:852,_RNvNtNtCs3JxpW9MMjKx_10baml_types7ir_type5tests10make_union
FN:833,_RNvNtNtCs3JxpW9MMjKx_10baml_types7ir_type5tests13make_optional
FN:1093,_RNvNtNtCs3JxpW9MMjKx_10baml_types7ir_type5testss_11flatten_int
FN:862,_RNvNtNtCs3JxpW9MMjKx_10baml_types7ir_type5testss_12simplify_int
FN:1087,_RNvNtNtCs3JxpW9MMjKx_10baml_types7ir_type5testss_17flatten_base_case
FN:857,_RNvNtNtCs3JxpW9MMjKx_10baml_types7ir_type5testss_18simplify_base_case
FN:1099,_RNvNtNtCs3JxpW9MMjKx_10baml_types7ir_type5testss_20flatten_optional_int
FN:1109,_RNvNtNtCs3JxpW9MMjKx_10baml_types7ir_type5testss_20partialize_base_case
FN:1169,_RNvNtNtCs3JxpW9MMjKx_10baml_types7ir_type5testss_21partialize_bare_class
FN:868,_RNvNtNtCs3JxpW9MMjKx_10baml_types7ir_type5testss_21simplify_optional_int
FN:874,_RNvNtNtCs3JxpW9MMjKx_10baml_types7ir_type5testss_22simplify_nested_unions
FN:1198,_RNvNtNtCs3JxpW9MMjKx_10baml_types7ir_type5testss_23partialize_simple_union
FN:1184,_RNvNtNtCs3JxpW9MMjKx_10baml_types7ir_type5testss_26partialize_class_with_done
FN:890,_RNvNtNtCs3JxpW9MMjKx_10baml_types7ir_type5testss_26simplify_repeated_variants
FN:918,_RNvNtNtCs3JxpW9MMjKx_10baml_types7ir_type5testss_26simplify_union_constraints
FN:904,_RNvNtNtCs3JxpW9MMjKx_10baml_types7ir_type5testss_28simplify_nested_with_repeats
FN:1118,_RNvNtNtCs3JxpW9MMjKx_10baml_types7ir_type5testss_35partialize_primitive_with_streaming
FN:1145,_RNvNtNtCs3JxpW9MMjKx_10baml_types7ir_type5testss_47parialize_primitive_needed_field_with_streaming
FN:480,_RNvMs9_NtCs3JxpW9MMjKx_10baml_types7ir_typeINtB5_11TypeGenericNtNtNtB5_9type_meta4base8TypeMetaE10partialize
FN:641,_RNvMsa_NtCs3JxpW9MMjKx_10baml_types7ir_typeINtB5_11TypeGenericNtNtNtB5_9type_meta4base8TypeMetaE18streaming_behavior
FN:645,_RNvMsa_NtCs3JxpW9MMjKx_10baml_types7ir_typeINtB5_11TypeGenericNtNtNtB5_9type_meta4base8TypeMetaE8simplify
FN:484,_RNvNvMs9_NtCs3JxpW9MMjKx_10baml_types7ir_typeINtB7_11TypeGenericNtNtNtB7_9type_meta4base8TypeMetaE10partialize17partialize_helper
FN:611,_RNvNvMs9_NtCs3JxpW9MMjKx_10baml_types7ir_typeINtB7_11TypeGenericNtNtNtB7_9type_meta4base8TypeMetaE10partialize27inherent_streaming_behavior
FN:132,_RNvXs4_NtCs3JxpW9MMjKx_10baml_types7ir_typeNtB5_12LiteralValueNtNtCs8dmkrYGpicx_4core3fmt7Display3fmt
FN:82,_RNvXs_NtCs3JxpW9MMjKx_10baml_types7ir_typeNtB4_9TypeValueNtNtCs8dmkrYGpicx_4core3fmt7Display3fmt
FNDA:25,_RNCNvMs5_NtCs3JxpW9MMjKx_10baml_types7ir_typeINtB7_20UnionTypeViewGenericNtNtNtB7_9type_meta4base8TypeMetaE7flatten0B9_
FNDA:8,_RNCNvMs5_NtCs3JxpW9MMjKx_10baml_types7ir_typeINtB7_20UnionTypeViewGenericNtNtNtB7_9type_meta4base8TypeMetaE7flattens_0B9_
FNDA:51,_RNCNvMs6_NtCs3JxpW9MMjKx_10baml_types7ir_typeINtB7_16UnionTypeGenericNtNtNtB7_9type_meta4base8TypeMetaE4view0B9_
FNDA:7,_RNCNvMs6_NtCs3JxpW9MMjKx_10baml_types7ir_typeINtB7_16UnionTypeGenericNtNtNtB7_9type_meta6stream17TypeMetaStreamingE4view0B9_
FNDA:46,_RNCNvMsa_NtCs3JxpW9MMjKx_10baml_types7ir_typeINtB7_11TypeGenericNtNtNtB7_9type_meta4base8TypeMetaE8simplify0B9_
FNDA:1,_RNCNvMsa_NtCs3JxpW9MMjKx_10baml_types7ir_typeINtB7_11TypeGenericNtNtNtB7_9type_meta4base8TypeMetaE8simplifys_0B9_
FNDA:0,_RNCNvNvMs9_NtCs3JxpW9MMjKx_10baml_types7ir_typeINtB9_11TypeGenericNtNtNtB9_9type_meta4base8TypeMetaE10partialize17partialize_helper0Bb_
FNDA:2,_RNCNvNvMs9_NtCs3JxpW9MMjKx_10baml_types7ir_typeINtB9_11TypeGenericNtNtNtB9_9type_meta4base8TypeMetaE10partialize17partialize_helpers0_0Bb_
FNDA:0,_RNCNvNvMs9_NtCs3JxpW9MMjKx_10baml_types7ir_typeINtB9_11TypeGenericNtNtNtB9_9type_meta4base8TypeMetaE10partialize17partialize_helpers_0Bb_
FNDA:23,_RNvMs5_NtCs3JxpW9MMjKx_10baml_types7ir_typeINtB5_20UnionTypeViewGenericNtNtNtB5_9type_meta4base8TypeMetaE7flattenB7_
FNDA:1,_RNvMs6_NtCs3JxpW9MMjKx_10baml_types7ir_typeINtB5_16UnionTypeGenericNtNtNtB5_9type_meta4base8TypeMetaE14iter_skip_nullB7_
FNDA:24,_RNvMs6_NtCs3JxpW9MMjKx_10baml_types7ir_typeINtB5_16UnionTypeGenericNtNtNtB5_9type_meta4base8TypeMetaE4viewB7_
FNDA:2,_RNvMs6_NtCs3JxpW9MMjKx_10baml_types7ir_typeINtB5_16UnionTypeGenericNtNtNtB5_9type_meta6stream17TypeMetaStreamingE11is_optionalB7_
FNDA:1,_RNvMs6_NtCs3JxpW9MMjKx_10baml_types7ir_typeINtB5_16UnionTypeGenericNtNtNtB5_9type_meta6stream17TypeMetaStreamingE14iter_skip_nullB7_
FNDA:3,_RNvMs6_NtCs3JxpW9MMjKx_10baml_types7ir_typeINtB5_16UnionTypeGenericNtNtNtB5_9type_meta6stream17TypeMetaStreamingE4viewB7_
FNDA:16,_RNvMs8_NtCs3JxpW9MMjKx_10baml_types7ir_typeINtB5_11TypeGenericNtNtNtB5_9type_meta4base8TypeMetaE4metaB7_
FNDA:44,_RNvMs8_NtCs3JxpW9MMjKx_10baml_types7ir_typeINtB5_11TypeGenericNtNtNtB5_9type_meta4base8TypeMetaE7flattenB7_
FNDA:81,_RNvMs8_NtCs3JxpW9MMjKx_10baml_types7ir_typeINtB5_11TypeGenericNtNtNtB5_9type_meta4base8TypeMetaE7is_nullB7_
FNDA:42,_RNvMs8_NtCs3JxpW9MMjKx_10baml_types7ir_typeINtB5_11TypeGenericNtNtNtB5_9type_meta4base8TypeMetaE8meta_mutB7_
FNDA:5,_RNvMs8_NtCs3JxpW9MMjKx_10baml_types7ir_typeINtB5_11TypeGenericNtNtNtB5_9type_meta6stream17TypeMetaStreamingE11is_optionalB7_
FNDA:3,_RNvMs8_NtCs3JxpW9MMjKx_10baml_types7ir_typeINtB5_11TypeGenericNtNtNtB5_9type_meta6stream17TypeMetaStreamingE4metaB7_
FNDA:16,_RNvMs8_NtCs3JxpW9MMjKx_10baml_types7ir_typeINtB5_11TypeGenericNtNtNtB5_9type_meta6stream17TypeMetaStreamingE7is_nullB7_
FNDA:7,_RNvMs8_NtCs3JxpW9MMjKx_10baml_types7ir_typeINtB5_11TypeGenericNtNtNtB5_9type_meta6stream17TypeMetaStreamingE8meta_mutB7_
FNDA:0,_RNCNvMs6_NtCs3JxpW9MMjKx_10baml_types7ir_typeINtB7_16UnionTypeGenericpE8view_mut0B9_
FNDA:0,_RNCNvXsb_NtCs3JxpW9MMjKx_10baml_types7ir_typeINtB7_11TypeGenericNtNtNtB7_9type_meta4base8TypeMetaENtB7_11ToUnionName13to_union_name0B9_
FNDA:0,_RNCNvXsb_NtCs3JxpW9MMjKx_10baml_types7ir_typeINtB7_11TypeGenericNtNtNtB7_9type_meta4base8TypeMetaENtB7_11ToUnionName13to_union_names0_0B9_
FNDA:0,_RNCNvXsb_NtCs3JxpW9MMjKx_10baml_types7ir_typeINtB7_11TypeGenericNtNtNtB7_9type_meta4base8TypeMetaENtB7_11ToUnionName13to_union_names_0B9_
FNDA:0,_RNCNvXsb_NtCs3JxpW9MMjKx_10baml_types7ir_typeINtB7_11TypeGenericNtNtNtB7_9type_meta4base8TypeMetaENtB7_11ToUnionName16find_union_types0B9_
FNDA:0,_RNvMs3_NtCs3JxpW9MMjKx_10baml_types7ir_typeNtB5_12LiteralValue17literal_base_type
FNDA:0,_RNvMs6_NtCs3JxpW9MMjKx_10baml_types7ir_typeINtB5_16UnionTypeGenericpE17iter_include_nullB7_
FNDA:0,_RNvMs6_NtCs3JxpW9MMjKx_10baml_types7ir_typeINtB5_16UnionTypeGenericpE18iter_skip_null_mutB7_
FNDA:0,_RNvMs6_NtCs3JxpW9MMjKx_10baml_types7ir_typeINtB5_16UnionTypeGenericpE8add_typeB7_
FNDA:0,_RNvMs6_NtCs3JxpW9MMjKx_10baml_types7ir_typeINtB5_16UnionTypeGenericpE8view_mutB7_
FNDA:0,_RNvMs8_NtCs3JxpW9MMjKx_10baml_types7ir_typeINtB5_11TypeGenericpE12dependenciesB7_
FNDA:0,_RNvMs8_NtCs3JxpW9MMjKx_10baml_types7ir_typeINtB5_11TypeGenericpE12is_primitiveB7_
FNDA:0,_RNvMs8_NtCs3JxpW9MMjKx_10baml_types7ir_typeINtB5_11TypeGenericpE8set_metaB7_
FNDA:0,_RNvXNtCs3JxpW9MMjKx_10baml_types7ir_typeNtB2_9TypeValueNtNtNtCs8dmkrYGpicx_4core3str6traits7FromStr8from_str
FNDA:0,_RNvXs0_NtCs3JxpW9MMjKx_10baml_types7ir_typeNtB5_12LiteralValueINtNtCs8dmkrYGpicx_4core7convert4FromxE4from
FNDA:0,_RNvXs1_NtCs3JxpW9MMjKx_10baml_types7ir_typeNtB5_12LiteralValueINtNtCs8dmkrYGpicx_4core7convert4FrombE4from
FNDA:0,_RNvXs2_NtCs3JxpW9MMjKx_10baml_types7ir_typeNtB5_12LiteralValueINtNtCs8dmkrYGpicx_4core7convert4FromReE4from
FNDA:0,_RNvXs7_NtCs3JxpW9MMjKx_10baml_types7ir_typeINtB5_11TypeGenericNtNtNtB5_9type_meta4base8TypeMetaENtB5_12HasFieldType10field_type
FNDA:0,_RNvXsb_NtCs3JxpW9MMjKx_10baml_types7ir_typeINtB5_11TypeGenericNtNtNtB5_9type_meta4base8TypeMetaENtB5_11ToUnionName13to_union_name
FNDA:0,_RNvXsb_NtCs3JxpW9MMjKx_10baml_types7ir_typeINtB5_11TypeGenericNtNtNtB5_9type_meta4base8TypeMetaENtB5_11ToUnionName16find_union_types
FNDA:10,_RNvNtNtCs3JxpW9MMjKx_10baml_types7ir_type5tests10make_union
FNDA:3,_RNvNtNtCs3JxpW9MMjKx_10baml_types7ir_type5tests13make_optional
FNDA:1,_RNvNtNtCs3JxpW9MMjKx_10baml_types7ir_type5testss_11flatten_int
FNDA:1,_RNvNtNtCs3JxpW9MMjKx_10baml_types7ir_type5testss_12simplify_int
FNDA:1,_RNvNtNtCs3JxpW9MMjKx_10baml_types7ir_type5testss_17flatten_base_case
FNDA:1,_RNvNtNtCs3JxpW9MMjKx_10baml_types7ir_type5testss_18simplify_base_case
FNDA:1,_RNvNtNtCs3JxpW9MMjKx_10baml_types7ir_type5testss_20flatten_optional_int
FNDA:1,_RNvNtNtCs3JxpW9MMjKx_10baml_types7ir_type5testss_20partialize_base_case
FNDA:1,_RNvNtNtCs3JxpW9MMjKx_10baml_types7ir_type5testss_21partialize_bare_class
FNDA:1,_RNvNtNtCs3JxpW9MMjKx_10baml_types7ir_type5testss_21simplify_optional_int
FNDA:1,_RNvNtNtCs3JxpW9MMjKx_10baml_types7ir_type5testss_22simplify_nested_unions
FNDA:1,_RNvNtNtCs3JxpW9MMjKx_10baml_types7ir_type5testss_23partialize_simple_union
FNDA:1,_RNvNtNtCs3JxpW9MMjKx_10baml_types7ir_type5testss_26partialize_class_with_done
FNDA:1,_RNvNtNtCs3JxpW9MMjKx_10baml_types7ir_type5testss_26simplify_repeated_variants
FNDA:1,_RNvNtNtCs3JxpW9MMjKx_10baml_types7ir_type5testss_26simplify_union_constraints
FNDA:1,_RNvNtNtCs3JxpW9MMjKx_10baml_types7ir_type5testss_28simplify_nested_with_repeats
FNDA:1,_RNvNtNtCs3JxpW9MMjKx_10baml_types7ir_type5testss_35partialize_primitive_with_streaming
FNDA:1,_RNvNtNtCs3JxpW9MMjKx_10baml_types7ir_type5testss_47parialize_primitive_needed_field_with_streaming
FNDA:6,_RNvMs9_NtCs3JxpW9MMjKx_10baml_types7ir_typeINtB5_11TypeGenericNtNtNtB5_9type_meta4base8TypeMetaE10partialize
FNDA:8,_RNvMsa_NtCs3JxpW9MMjKx_10baml_types7ir_typeINtB5_11TypeGenericNtNtNtB5_9type_meta4base8TypeMetaE18streaming_behavior
FNDA:22,_RNvMsa_NtCs3JxpW9MMjKx_10baml_types7ir_typeINtB5_11TypeGenericNtNtNtB5_9type_meta4base8TypeMetaE8simplify
FNDA:8,_RNvNvMs9_NtCs3JxpW9MMjKx_10baml_types7ir_typeINtB7_11TypeGenericNtNtNtB7_9type_meta4base8TypeMetaE10partialize17partialize_helper
FNDA:8,_RNvNvMs9_NtCs3JxpW9MMjKx_10baml_types7ir_typeINtB7_11TypeGenericNtNtNtB7_9type_meta4base8TypeMetaE10partialize27inherent_streaming_behavior
FNDA:0,_RNvXs4_NtCs3JxpW9MMjKx_10baml_types7ir_typeNtB5_12LiteralValueNtNtCs8dmkrYGpicx_4core3fmt7Display3fmt
FNDA:0,_RNvXs_NtCs3JxpW9MMjKx_10baml_types7ir_typeNtB4_9TypeValueNtNtCs8dmkrYGpicx_4core3fmt7Display3fmt
FNF:62
FNH:38
DA:67,0
DA:68,0
DA:69,0
DA:70,0
DA:71,0
DA:72,0
DA:73,0
DA:74,0
DA:75,0
DA:76,0
DA:78,0
DA:82,0
DA:83,0
DA:84,0
DA:85,0
DA:86,0
DA:87,0
DA:88,0
DA:89,0
DA:90,0
DA:92,0
DA:104,0
DA:105,0
DA:106,0
DA:110,0
DA:111,0
DA:112,0
DA:116,0
DA:117,0
DA:118,0
DA:122,0
DA:123,0
DA:124,0
DA:125,0
DA:126,0
DA:128,0
DA:132,0
DA:133,0
DA:134,0
DA:135,0
DA:136,0
DA:138,0
DA:189,23
DA:190,23
DA:191,0
DA:192,8
DA:193,8
DA:194,8
DA:195,8
DA:196,8
DA:197,11
DA:198,25
DA:200,4
DA:201,4
DA:202,8
DA:203,4
DA:204,4
DA:206,23
DA:210,2
DA:211,2
DA:212,0
DA:213,0
DA:214,1
DA:215,1
DA:217,2
DA:219,0
DA:220,0
DA:221,0
DA:223,27
DA:224,27
DA:225,27
DA:226,27
DA:227,58
DA:228,27
DA:229,27
DA:230,0
DA:231,8
DA:233,19
DA:234,14
DA:236,5
DA:240,27
DA:242,0
DA:243,0
DA:244,0
DA:245,0
DA:246,0
DA:247,0
DA:248,0
DA:249,0
DA:250,0
DA:252,0
DA:253,0
DA:254,0
DA:255,0
DA:256,0
DA:257,0
DA:260,0
DA:261,0
DA:263,0
DA:267,0
DA:269,0
DA:270,0
DA:271,0
DA:272,0
DA:273,0
DA:274,0
DA:276,0
DA:278,2
DA:279,2
DA:280,0
DA:281,0
DA:282,2
DA:283,0
DA:285,2
DA:287,0
DA:288,0
DA:289,0
DA:290,0
DA:291,0
DA:292,0
DA:293,0
DA:301,0
DA:302,0
DA:303,0
DA:324,44
DA:325,44
DA:326,44
DA:327,44
DA:328,44
DA:329,3
DA:330,41
DA:332,44
DA:334,0
DA:335,0
DA:336,0
DA:337,0
DA:338,0
DA:339,0
DA:340,0
DA:341,0
DA:342,0
DA:343,0
DA:344,0
DA:345,0
DA:347,0
DA:349,19
DA:350,19
DA:351,6
DA:352,0
DA:353,11
DA:354,0
DA:355,0
DA:356,0
DA:357,0
DA:358,0
DA:359,0
DA:360,2
DA:362,19
DA:364,49
DA:365,49
DA:366,3
DA:367,0
DA:368,42
DA:369,0
DA:370,0
DA:371,0
DA:372,0
DA:373,0
DA:374,0
DA:375,4
DA:377,49
DA:382,0
DA:383,0
DA:384,0
DA:385,0
DA:386,0
DA:388,0
DA:390,5
DA:391,5
DA:392,5
DA:393,5
DA:394,2
DA:395,1
DA:396,1
DA:397,3
DA:399,5
DA:401,97
DA:402,91
DA:403,9
DA:404,88
DA:406,97
DA:409,0
DA:410,0
DA:411,0
DA:412,0
DA:413,0
DA:414,0
DA:415,0
DA:416,0
DA:417,0
DA:418,0
DA:419,0
DA:420,0
DA:421,0
DA:422,0
DA:423,0
DA:424,0
DA:425,0
DA:426,0
DA:427,0
DA:428,0
DA:429,0
DA:430,0
DA:431,0
DA:432,0
DA:433,0
DA:434,0
DA:436,0
DA:437,0
DA:440,0
DA:441,0
DA:442,0
DA:443,0
DA:444,0
DA:445,0
DA:446,0
DA:447,0
DA:448,0
DA:449,0
DA:450,0
DA:453,0
DA:454,0
DA:480,6
DA:484,8
DA:485,8
DA:486,8
DA:487,8
DA:488,8
DA:489,8
DA:490,8
DA:491,8
DA:492,8
DA:495,8
DA:496,8
DA:497,8
DA:498,8
DA:502,8
DA:503,5
DA:504,1
DA:505,3
DA:506,0
DA:507,0
DA:508,1
DA:510,0
DA:513,0
DA:514,0
DA:515,0
DA:516,0
DA:517,0
DA:518,0
DA:519,0
DA:521,2
DA:522,2
DA:523,2
DA:524,1
DA:526,1
DA:528,2
DA:529,2
DA:531,0
DA:532,0
DA:534,0
DA:535,0
DA:536,0
DA:537,0
DA:538,0
DA:539,0
DA:540,0
DA:541,0
DA:542,0
DA:543,0
DA:544,0
DA:545,0
DA:547,0
DA:548,0
DA:549,0
DA:550,0
DA:551,0
DA:552,0
DA:553,0
DA:554,0
DA:555,0
DA:556,0
DA:557,0
DA:558,0
DA:559,0
DA:560,0
DA:561,0
DA:562,0
DA:563,0
DA:564,0
DA:565,1
DA:566,1
DA:567,2
DA:568,2
DA:569,2
DA:570,2
DA:572,1
DA:573,1
DA:574,1
DA:575,1
DA:577,0
DA:579,1
DA:582,8
DA:585,5
DA:592,3
DA:593,3
DA:594,3
DA:595,3
DA:596,3
DA:597,3
DA:598,3
DA:599,3
DA:600,3
DA:601,3
DA:602,3
DA:603,3
DA:604,3
DA:606,8
DA:611,8
DA:612,8
DA:613,8
DA:615,8
DA:616,5
DA:617,3
DA:618,3
DA:619,3
DA:620,3
DA:621,2
DA:623,0
DA:624,0
DA:625,0
DA:626,0
DA:628,0
DA:629,0
DA:630,0
DA:631,0
DA:632,0
DA:633,3
DA:635,8
DA:636,6
DA:637,6
DA:641,8
DA:642,8
DA:643,8
DA:645,22
DA:646,22
DA:647,20
DA:648,20
DA:649,20
DA:650,20
DA:651,20
DA:652,20
DA:653,20
DA:654,20
DA:655,46
DA:656,20
DA:657,20
DA:658,20
DA:659,20
DA:660,20
DA:661,20
DA:662,20
DA:664,1
DA:665,20
DA:666,20
DA:667,20
DA:668,20
DA:669,20
DA:670,20
DA:671,20
DA:674,35
DA:675,35
DA:676,35
DA:677,2
DA:678,33
DA:679,35
DA:680,2
DA:681,33
DA:684,20
DA:685,20
DA:686,20
DA:687,20
DA:688,1
DA:689,19
DA:690,20
DA:691,20
DA:693,20
DA:694,0
DA:696,5
DA:698,5
DA:699,5
DA:700,5
DA:701,5
DA:704,0
DA:708,15
DA:709,6
DA:710,9
DA:711,15
DA:712,15
DA:713,15
DA:714,15
DA:718,20
DA:720,2
DA:722,22
DA:731,0
DA:732,0
DA:733,0
DA:734,0
DA:735,0
DA:736,0
DA:737,0
DA:738,0
DA:739,0
DA:740,0
DA:742,0
DA:744,0
DA:746,0
DA:747,0
DA:748,0
DA:750,0
DA:752,0
DA:753,0
DA:754,0
DA:755,0
DA:756,0
DA:757,0
DA:758,0
DA:759,0
DA:760,0
DA:761,0
DA:762,0
DA:763,0
DA:764,0
DA:765,0
DA:767,0
DA:768,0
DA:769,0
DA:771,0
DA:772,0
DA:773,0
DA:774,0
DA:775,0
DA:776,0
DA:778,0
DA:779,0
DA:780,0
DA:781,0
DA:782,0
DA:783,0
DA:784,0
DA:785,0
DA:786,0
DA:787,0
DA:788,0
DA:789,0
DA:790,0
DA:791,0
DA:794,0
DA:795,0
DA:796,0
DA:797,0
DA:798,0
DA:799,0
DA:800,0
DA:801,0
DA:802,0
DA:803,0
DA:804,0
DA:806,0
DA:833,3
DA:834,3
DA:835,1
DA:836,0
DA:837,1
DA:838,1
DA:839,1
DA:840,1
DA:841,1
DA:842,1
DA:843,1
DA:844,1
DA:845,2
DA:846,2
DA:847,2
DA:848,2
DA:849,2
DA:850,3
DA:852,10
DA:853,10
DA:854,10
DA:857,1
DA:858,1
DA:859,1
DA:862,1
DA:863,1
DA:864,1
DA:865,1
DA:868,1
DA:869,1
DA:870,1
DA:871,1
DA:874,1
DA:875,1
DA:876,1
DA:877,1
DA:878,1
DA:879,1
DA:880,1
DA:881,1
DA:882,1
DA:883,1
DA:884,1
DA:885,1
DA:886,1
DA:887,1
DA:890,1
DA:891,1
DA:892,1
DA:893,1
DA:894,1
DA:895,1
DA:896,1
DA:897,1
DA:898,1
DA:899,1
DA:900,1
DA:901,1
DA:904,1
DA:905,1
DA:906,1
DA:907,1
DA:908,1
DA:909,1
DA:910,1
DA:911,1
DA:912,1
DA:913,1
DA:914,1
DA:915,1
DA:918,1
DA:925,1
DA:926,1
DA:927,1
DA:928,1
DA:929,1
DA:930,1
DA:931,1
DA:932,1
DA:933,1
DA:934,1
DA:935,1
DA:936,1
DA:937,1
DA:938,1
DA:939,1
DA:940,1
DA:941,1
DA:942,1
DA:943,1
DA:944,1
DA:945,1
DA:946,1
DA:947,1
DA:948,1
DA:949,1
DA:950,1
DA:951,1
DA:952,1
DA:953,1
DA:954,1
DA:955,1
DA:956,1
DA:957,1
DA:958,1
DA:959,1
DA:960,1
DA:961,1
DA:962,1
DA:963,1
DA:964,1
DA:965,1
DA:966,1
DA:967,1
DA:968,1
DA:969,1
DA:970,1
DA:971,1
DA:972,1
DA:973,1
DA:974,1
DA:975,1
DA:976,1
DA:977,1
DA:978,1
DA:979,1
DA:980,1
DA:981,1
DA:982,1
DA:983,1
DA:984,1
DA:985,1
DA:986,1
DA:987,1
DA:988,1
DA:989,1
DA:990,1
DA:991,1
DA:992,1
DA:993,1
DA:994,1
DA:995,1
DA:996,1
DA:997,1
DA:998,1
DA:999,1
DA:1000,1
DA:1001,1
DA:1002,1
DA:1003,1
DA:1004,1
DA:1005,1
DA:1006,1
DA:1007,1
DA:1008,1
DA:1009,1
DA:1010,1
DA:1011,1
DA:1012,1
DA:1013,1
DA:1014,1
DA:1015,1
DA:1016,1
DA:1017,1
DA:1018,1
DA:1019,1
DA:1020,1
DA:1021,1
DA:1022,1
DA:1023,1
DA:1024,1
DA:1025,1
DA:1026,1
DA:1027,1
DA:1028,1
DA:1029,1
DA:1030,1
DA:1031,1
DA:1032,1
DA:1033,1
DA:1034,1
DA:1035,1
DA:1036,1
DA:1037,1
DA:1038,1
DA:1039,1
DA:1040,1
DA:1041,1
DA:1042,1
DA:1043,1
DA:1044,1
DA:1045,1
DA:1046,1
DA:1047,1
DA:1048,1
DA:1049,1
DA:1050,1
DA:1051,1
DA:1052,1
DA:1053,1
DA:1054,1
DA:1055,1
DA:1056,1
DA:1057,1
DA:1058,1
DA:1059,1
DA:1060,1
DA:1061,1
DA:1062,1
DA:1063,1
DA:1064,1
DA:1065,1
DA:1066,1
DA:1067,1
DA:1068,1
DA:1069,1
DA:1070,1
DA:1071,1
DA:1072,1
DA:1073,1
DA:1074,1
DA:1076,6
DA:1077,5
DA:1078,5
DA:1080,0
DA:1084,1
DA:1087,1
DA:1088,1
DA:1089,1
DA:1090,1
DA:1093,1
DA:1094,1
DA:1095,1
DA:1096,1
DA:1099,1
DA:1100,1
DA:1101,1
DA:1102,1
DA:1103,1
DA:1104,1
DA:1105,1
DA:1109,1
DA:1110,1
DA:1111,1
DA:1112,1
DA:1113,1
DA:1114,1
DA:1115,1
DA:1118,1
DA:1119,1
DA:1120,1
DA:1121,1
DA:1122,1
DA:1123,1
DA:1124,1
DA:1125,1
DA:1126,1
DA:1127,1
DA:1128,1
DA:1129,1
DA:1130,1
DA:1131,1
DA:1132,1
DA:1133,1
DA:1134,1
DA:1135,1
DA:1136,1
DA:1137,1
DA:1138,1
DA:1139,1
DA:1140,1
DA:1141,1
DA:1142,1
DA:1145,1
DA:1146,1
DA:1147,1
DA:1148,1
DA:1149,1
DA:1150,1
DA:1151,1
DA:1152,1
DA:1153,1
DA:1154,1
DA:1155,1
DA:1156,1
DA:1157,1
DA:1158,1
DA:1159,1
DA:1160,1
DA:1161,1
DA:1162,1
DA:1163,1
DA:1164,1
DA:1165,1
DA:1169,1
DA:1170,1
DA:1171,1
DA:1172,1
DA:1173,1
DA:1174,1
DA:1175,1
DA:1176,1
DA:1177,1
DA:1178,1
DA:1179,1
DA:1180,1
DA:1184,1
DA:1185,1
DA:1186,1
DA:1187,1
DA:1188,1
DA:1189,1
DA:1190,1
DA:1191,1
DA:1192,1
DA:1193,1
DA:1194,1
DA:1195,1
DA:1198,1
DA:1199,1
DA:1200,1
DA:1201,1
DA:1202,1
DA:1203,1
DA:1204,1
DA:1205,1
DA:1206,1
DA:1207,1
DA:1208,1
DA:1209,1
DA:1210,1
DA:1211,1
DA:1212,1
DA:1213,1
DA:1214,1
DA:1215,1
DA:1216,1
DA:1217,1
DA:1218,1
BRF:0
BRH:0
LF:833
LH:543
end_of_record
SF:/Users/rahul/code/rust/baml/engine/baml-lib/baml-types/src/ir_type/type_meta.rs
FN:32,_RNvMNtNtNtCs3JxpW9MMjKx_10baml_types7ir_type9type_meta4baseNtB2_17StreamingBehavior7combine
FN:72,_RNvMNtNtNtCs3JxpW9MMjKx_10baml_types7ir_type9type_meta6streamNtB2_17TypeMetaStreaming5state
FN:67,_RNvMNtNtNtCs3JxpW9MMjKx_10baml_types7ir_type9type_meta6streamNtB2_17TypeMetaStreaming4done
FNDA:8,_RNvMNtNtNtCs3JxpW9MMjKx_10baml_types7ir_type9type_meta4baseNtB2_17StreamingBehavior7combine
FNDA:0,_RNvMNtNtNtCs3JxpW9MMjKx_10baml_types7ir_type9type_meta6streamNtB2_17TypeMetaStreaming5state
FNDA:1,_RNvMNtNtNtCs3JxpW9MMjKx_10baml_types7ir_type9type_meta6streamNtB2_17TypeMetaStreaming4done
FNF:3
FNH:2
DA:32,8
DA:33,8
DA:34,8
DA:35,8
DA:36,8
DA:38,8
DA:67,1
DA:68,1
DA:69,1
DA:70,1
DA:72,0
DA:73,0
DA:74,0
DA:75,0
BRF:0
BRH:0
LF:14
LH:10
end_of_record
SF:/Users/rahul/code/rust/baml/engine/baml-lib/baml-types/src/ir_type/union_type.rs
FN:13,_RNvMNtNtCs3JxpW9MMjKx_10baml_types7ir_type10union_typeINtB4_16UnionTypeGenericNtNtNtB4_9type_meta4base8TypeMetaE10new_unsafeB6_
FN:6,_RNvMNtNtCs3JxpW9MMjKx_10baml_types7ir_type10union_typeINtB4_16UnionTypeGenericNtNtNtB4_9type_meta4base8TypeMetaE3newB6_
FN:13,_RNvMNtNtCs3JxpW9MMjKx_10baml_types7ir_type10union_typeINtB4_16UnionTypeGenericNtNtNtB4_9type_meta6stream17TypeMetaStreamingE10new_unsafeB6_
FN:14,_RNCNvMNtNtCs3JxpW9MMjKx_10baml_types7ir_type10union_typeINtB6_16UnionTypeGenericNtNtNtB6_9type_meta4base8TypeMetaE10new_unsafe0B8_
FN:14,_RNCNvMNtNtCs3JxpW9MMjKx_10baml_types7ir_type10union_typeINtB6_16UnionTypeGenericNtNtNtB6_9type_meta6stream17TypeMetaStreamingE10new_unsafe0B8_
FN:37,_RNvMs_NtNtCs3JxpW9MMjKx_10baml_types7ir_type10union_typeINtB6_11TypeGenericNtNtNtB6_9type_meta4base8TypeMetaE11as_optional
FN:29,_RNvMs_NtNtCs3JxpW9MMjKx_10baml_types7ir_type10union_typeINtB6_11TypeGenericNtNtNtB6_9type_meta4base8TypeMetaE15union_with_meta
FN:25,_RNvMs_NtNtCs3JxpW9MMjKx_10baml_types7ir_type10union_typeINtB6_11TypeGenericNtNtNtB6_9type_meta4base8TypeMetaE5union
FN:33,_RNvMs_NtNtCs3JxpW9MMjKx_10baml_types7ir_type10union_typeINtB6_11TypeGenericNtNtNtB6_9type_meta4base8TypeMetaE8optional
FNDA:30,_RNvMNtNtCs3JxpW9MMjKx_10baml_types7ir_type10union_typeINtB4_16UnionTypeGenericNtNtNtB4_9type_meta4base8TypeMetaE10new_unsafeB6_
FNDA:11,_RNvMNtNtCs3JxpW9MMjKx_10baml_types7ir_type10union_typeINtB4_16UnionTypeGenericNtNtNtB4_9type_meta4base8TypeMetaE3newB6_
FNDA:9,_RNvMNtNtCs3JxpW9MMjKx_10baml_types7ir_type10union_typeINtB4_16UnionTypeGenericNtNtNtB4_9type_meta6stream17TypeMetaStreamingE10new_unsafeB6_
FNDA:30,_RNCNvMNtNtCs3JxpW9MMjKx_10baml_types7ir_type10union_typeINtB6_16UnionTypeGenericNtNtNtB6_9type_meta4base8TypeMetaE10new_unsafe0B8_
FNDA:9,_RNCNvMNtNtCs3JxpW9MMjKx_10baml_types7ir_type10union_typeINtB6_16UnionTypeGenericNtNtNtB6_9type_meta6stream17TypeMetaStreamingE10new_unsafe0B8_
FNDA:0,_RNvMs_NtNtCs3JxpW9MMjKx_10baml_types7ir_type10union_typeINtB6_11TypeGenericNtNtNtB6_9type_meta4base8TypeMetaE11as_optional
FNDA:0,_RNvMs_NtNtCs3JxpW9MMjKx_10baml_types7ir_type10union_typeINtB6_11TypeGenericNtNtNtB6_9type_meta4base8TypeMetaE15union_with_meta
FNDA:11,_RNvMs_NtNtCs3JxpW9MMjKx_10baml_types7ir_type10union_typeINtB6_11TypeGenericNtNtNtB6_9type_meta4base8TypeMetaE5union
FNDA:2,_RNvMs_NtNtCs3JxpW9MMjKx_10baml_types7ir_type10union_typeINtB6_11TypeGenericNtNtNtB6_9type_meta4base8TypeMetaE8optional
FNF:7
FNH:5
DA:6,11
DA:7,11
DA:8,11
DA:9,11
DA:10,11
DA:11,11
DA:13,39
DA:14,39
DA:15,0
DA:16,39
DA:17,39
DA:18,39
DA:19,39
DA:20,39
DA:21,39
DA:25,11
DA:26,11
DA:27,11
DA:29,0
DA:30,0
DA:31,0
DA:33,2
DA:34,2
DA:35,2
DA:37,0
DA:38,0
DA:39,0
BRF:0
BRH:0
LF:28
LH:21
end_of_record
SF:/Users/rahul/code/rust/baml/engine/baml-lib/baml-types/src/media.rs
FN:111,_RNCNvMs0_NtCs3JxpW9MMjKx_10baml_types5mediaNtB7_9MediaFile9extension0B9_
FN:103,_RNvMs0_NtCs3JxpW9MMjKx_10baml_types5mediaNtB5_9MediaFile4path
FN:110,_RNvMs0_NtCs3JxpW9MMjKx_10baml_types5mediaNtB5_9MediaFile9extension
FN:45,_RNvMs_NtCs3JxpW9MMjKx_10baml_types5mediaNtB4_9BamlMedia15mime_type_as_ok
FN:67,_RNvMs_NtCs3JxpW9MMjKx_10baml_types5mediaNtB4_9BamlMedia3url
FN:51,_RNvMs_NtCs3JxpW9MMjKx_10baml_types5mediaNtB4_9BamlMedia4file
FN:75,_RNvMs_NtCs3JxpW9MMjKx_10baml_types5mediaNtB4_9BamlMedia6base64
FN:13,_RNvXNtCs3JxpW9MMjKx_10baml_types5mediaNtB2_13BamlMediaTypeNtNtCs8dmkrYGpicx_4core3fmt7Display3fmt
FN:116,_RNvXs1_NtCs3JxpW9MMjKx_10baml_types5mediaNtB5_9MediaFileNtNtCs8dmkrYGpicx_4core3fmt7Display3fmt
FN:126,_RNvXs2_NtCs3JxpW9MMjKx_10baml_types5mediaNtB5_8MediaUrlNtNtCs8dmkrYGpicx_4core3fmt7Display3fmt
FN:137,_RNvXs3_NtCs3JxpW9MMjKx_10baml_types5mediaNtB5_11MediaBase64NtNtCs8dmkrYGpicx_4core3fmt5Debug3fmt
FNDA:0,_RNCNvMs0_NtCs3JxpW9MMjKx_10baml_types5mediaNtB7_9MediaFile9extension0B9_
FNDA:0,_RNvMs0_NtCs3JxpW9MMjKx_10baml_types5mediaNtB5_9MediaFile4path
FNDA:0,_RNvMs0_NtCs3JxpW9MMjKx_10baml_types5mediaNtB5_9MediaFile9extension
FNDA:0,_RNvMs_NtCs3JxpW9MMjKx_10baml_types5mediaNtB4_9BamlMedia15mime_type_as_ok
FNDA:0,_RNvMs_NtCs3JxpW9MMjKx_10baml_types5mediaNtB4_9BamlMedia3url
FNDA:0,_RNvMs_NtCs3JxpW9MMjKx_10baml_types5mediaNtB4_9BamlMedia4file
FNDA:0,_RNvMs_NtCs3JxpW9MMjKx_10baml_types5mediaNtB4_9BamlMedia6base64
FNDA:0,_RNvXNtCs3JxpW9MMjKx_10baml_types5mediaNtB2_13BamlMediaTypeNtNtCs8dmkrYGpicx_4core3fmt7Display3fmt
FNDA:0,_RNvXs1_NtCs3JxpW9MMjKx_10baml_types5mediaNtB5_9MediaFileNtNtCs8dmkrYGpicx_4core3fmt7Display3fmt
FNDA:0,_RNvXs2_NtCs3JxpW9MMjKx_10baml_types5mediaNtB5_8MediaUrlNtNtCs8dmkrYGpicx_4core3fmt7Display3fmt
FNDA:0,_RNvXs3_NtCs3JxpW9MMjKx_10baml_types5mediaNtB5_11MediaBase64NtNtCs8dmkrYGpicx_4core3fmt5Debug3fmt
FNF:11
FNH:0
DA:13,0
DA:14,0
DA:15,0
DA:16,0
DA:18,0
DA:45,0
DA:46,0
DA:47,0
DA:48,0
DA:49,0
DA:50,0
DA:51,0
DA:52,0
DA:53,0
DA:54,0
DA:55,0
DA:56,0
DA:57,0
DA:58,0
DA:59,0
DA:60,0
DA:61,0
DA:62,0
DA:63,0
DA:64,0
DA:65,0
DA:67,0
DA:68,0
DA:69,0
DA:70,0
DA:71,0
DA:72,0
DA:73,0
DA:75,0
DA:76,0
DA:77,0
DA:78,0
DA:79,0
DA:80,0
DA:81,0
DA:82,0
DA:83,0
DA:84,0
DA:85,0
DA:103,0
DA:104,0
DA:105,0
DA:106,0
DA:107,0
DA:108,0
DA:109,0
DA:110,0
DA:111,0
DA:112,0
DA:116,0
DA:117,0
DA:118,0
DA:126,0
DA:127,0
DA:128,0
DA:137,0
DA:138,0
DA:139,0
DA:140,0
DA:141,0
DA:142,0
DA:143,0
DA:144,0
DA:145,0
DA:146,0
DA:147,0
DA:148,0
DA:150,0
DA:151,0
DA:152,0
DA:154,0
BRF:0
BRH:0
LF:77
LH:0
end_of_record
SF:/Users/rahul/code/rust/baml/engine/baml-lib/baml-types/src/minijinja.rs
FN:24,_RNCNvXs_NtCs3JxpW9MMjKx_10baml_types9minijinjaNtNtCseSqzCv1T9y5_9minijinja5value5ValueINtNtCs8dmkrYGpicx_4core7convert4FromNtNtB8_10baml_value9BamlValueE4from0B8_
FN:34,_RNCNvXs_NtCs3JxpW9MMjKx_10baml_types9minijinjaNtNtCseSqzCv1T9y5_9minijinja5value5ValueINtNtCs8dmkrYGpicx_4core7convert4FromNtNtB8_10baml_value9BamlValueE4froms0_0B8_
FN:28,_RNCNvXs_NtCs3JxpW9MMjKx_10baml_types9minijinjaNtNtCseSqzCv1T9y5_9minijinja5value5ValueINtNtCs8dmkrYGpicx_4core7convert4FromNtNtB8_10baml_value9BamlValueE4froms_0B8_
FN:11,_RNvXNtCs3JxpW9MMjKx_10baml_types9minijinjaNtB2_15JinjaExpressionNtNtCs8dmkrYGpicx_4core3fmt7Display3fmt
FN:47,_RNvXs0_NtCs3JxpW9MMjKx_10baml_types9minijinjaNtB5_18MinijinjaBamlMediaINtNtCs8dmkrYGpicx_4core7convert4FromNtNtB7_5media9BamlMediaE4from
FN:53,_RNvXs1_NtCs3JxpW9MMjKx_10baml_types9minijinjaNtNtCseSqzCv1T9y5_9minijinja5value5ValueINtNtCs8dmkrYGpicx_4core7convert4FromNtNtB7_5media9BamlMediaE4from
FN:61,_RNvXs2_NtCs3JxpW9MMjKx_10baml_types9minijinjaNtB5_18MinijinjaBamlMediaNtNtCs8dmkrYGpicx_4core3fmt7Display3fmt
FN:73,_RNvXs3_NtCs3JxpW9MMjKx_10baml_types9minijinjaNtB5_18MinijinjaBamlMediaNtNtCs8dmkrYGpicx_4core3fmt5Debug3fmt
FN:79,_RNvXs4_NtCs3JxpW9MMjKx_10baml_types9minijinjaNtB5_18MinijinjaBamlMediaNtNtNtCseSqzCv1T9y5_9minijinja5value6object6Object4call
FN:17,_RNvXs_NtCs3JxpW9MMjKx_10baml_types9minijinjaNtNtCseSqzCv1T9y5_9minijinja5value5ValueINtNtCs8dmkrYGpicx_4core7convert4FromNtNtB6_10baml_value9BamlValueE4from
FNDA:0,_RNCNvXs_NtCs3JxpW9MMjKx_10baml_types9minijinjaNtNtCseSqzCv1T9y5_9minijinja5value5ValueINtNtCs8dmkrYGpicx_4core7convert4FromNtNtB8_10baml_value9BamlValueE4from0B8_
FNDA:0,_RNCNvXs_NtCs3JxpW9MMjKx_10baml_types9minijinjaNtNtCseSqzCv1T9y5_9minijinja5value5ValueINtNtCs8dmkrYGpicx_4core7convert4FromNtNtB8_10baml_value9BamlValueE4froms0_0B8_
FNDA:0,_RNCNvXs_NtCs3JxpW9MMjKx_10baml_types9minijinjaNtNtCseSqzCv1T9y5_9minijinja5value5ValueINtNtCs8dmkrYGpicx_4core7convert4FromNtNtB8_10baml_value9BamlValueE4froms_0B8_
FNDA:0,_RNvXNtCs3JxpW9MMjKx_10baml_types9minijinjaNtB2_15JinjaExpressionNtNtCs8dmkrYGpicx_4core3fmt7Display3fmt
FNDA:0,_RNvXs0_NtCs3JxpW9MMjKx_10baml_types9minijinjaNtB5_18MinijinjaBamlMediaINtNtCs8dmkrYGpicx_4core7convert4FromNtNtB7_5media9BamlMediaE4from
FNDA:0,_RNvXs1_NtCs3JxpW9MMjKx_10baml_types9minijinjaNtNtCseSqzCv1T9y5_9minijinja5value5ValueINtNtCs8dmkrYGpicx_4core7convert4FromNtNtB7_5media9BamlMediaE4from
FNDA:0,_RNvXs2_NtCs3JxpW9MMjKx_10baml_types9minijinjaNtB5_18MinijinjaBamlMediaNtNtCs8dmkrYGpicx_4core3fmt7Display3fmt
FNDA:0,_RNvXs3_NtCs3JxpW9MMjKx_10baml_types9minijinjaNtB5_18MinijinjaBamlMediaNtNtCs8dmkrYGpicx_4core3fmt5Debug3fmt
FNDA:0,_RNvXs4_NtCs3JxpW9MMjKx_10baml_types9minijinjaNtB5_18MinijinjaBamlMediaNtNtNtCseSqzCv1T9y5_9minijinja5value6object6Object4call
FNDA:0,_RNvXs_NtCs3JxpW9MMjKx_10baml_types9minijinjaNtNtCseSqzCv1T9y5_9minijinja5value5ValueINtNtCs8dmkrYGpicx_4core7convert4FromNtNtB6_10baml_value9BamlValueE4from
FNF:10
FNH:0
DA:11,0
DA:12,0
DA:13,0
DA:17,0
DA:18,0
DA:19,0
DA:20,0
DA:21,0
DA:22,0
DA:23,0
DA:24,0
DA:25,0
DA:27,0
DA:28,0
DA:29,0
DA:31,0
DA:32,0
DA:33,0
DA:34,0
DA:35,0
DA:37,0
DA:39,0
DA:47,0
DA:48,0
DA:49,0
DA:53,0
DA:54,0
DA:55,0
DA:61,0
DA:62,0
DA:63,0
DA:64,0
DA:65,0
DA:66,0
DA:67,0
DA:73,0
DA:74,0
DA:75,0
DA:79,0
DA:80,0
DA:81,0
DA:82,0
DA:83,0
DA:84,0
DA:85,0
DA:86,0
DA:87,0
DA:88,0
BRF:0
BRH:0
LF:51
LH:0
end_of_record
SF:/Users/rahul/code/rust/baml/engine/baml-lib/baml-types/src/tracing/errors.rs
FN:44,_RNvXNtNtCs3JxpW9MMjKx_10baml_types7tracing6errorsNtB2_9BamlErrorINtNtCs8dmkrYGpicx_4core7convert4FromRNtCs9tT0RnLbGg2_6anyhow5ErrorE4from
FNDA:0,_RNvXNtNtCs3JxpW9MMjKx_10baml_types7tracing6errorsNtB2_9BamlErrorINtNtCs8dmkrYGpicx_4core7convert4FromRNtCs9tT0RnLbGg2_6anyhow5ErrorE4from
FNF:1
FNH:0
DA:44,0
DA:45,0
DA:46,0
DA:48,0
DA:49,0
DA:50,0
DA:52,0
BRF:0
BRH:0
LF:7
LH:0
end_of_record
SF:/Users/rahul/code/rust/baml/engine/baml-lib/baml-types/src/tracing/events.rs
FN:264,_RNCNCNvMs1_NtNtCs3JxpW9MMjKx_10baml_types7tracing6eventsNtB9_8HTTPBody14as_serde_value00Bd_
FN:269,_RNCNCNvMs1_NtNtCs3JxpW9MMjKx_10baml_types7tracing6eventsNtB9_8HTTPBody14as_serde_values_00Bd_
FN:264,_RNCNvMs1_NtNtCs3JxpW9MMjKx_10baml_types7tracing6eventsNtB7_8HTTPBody14as_serde_value0Bb_
FN:265,_RNCNvMs1_NtNtCs3JxpW9MMjKx_10baml_types7tracing6eventsNtB7_8HTTPBody14as_serde_values_0Bb_
FN:255,_RNCNvMs1_NtNtCs3JxpW9MMjKx_10baml_types7tracing6eventsNtB7_8HTTPBody4json0Bb_
FN:250,_RNCNvMs1_NtNtCs3JxpW9MMjKx_10baml_types7tracing6eventsNtB7_8HTTPBody4text0Bb_
FN:51,_RNvMNtNtCs3JxpW9MMjKx_10baml_types7tracing6eventsINtB2_10TraceEventpE12new_set_tagsB6_
FN:90,_RNvMNtNtCs3JxpW9MMjKx_10baml_types7tracing6eventsINtB2_10TraceEventpE15new_llm_requestB6_
FN:76,_RNvMNtNtCs3JxpW9MMjKx_10baml_types7tracing6eventsINtB2_10TraceEventpE16new_function_endB6_
FN:98,_RNvMNtNtCs3JxpW9MMjKx_10baml_types7tracing6eventsINtB2_10TraceEventpE16new_llm_responseB6_
FN:35,_RNvMNtNtCs3JxpW9MMjKx_10baml_types7tracing6eventsINtB2_10TraceEventpE18from_existing_callB6_
FN:56,_RNvMNtNtCs3JxpW9MMjKx_10baml_types7tracing6eventsINtB2_10TraceEventpE18new_function_startB6_
FN:106,_RNvMNtNtCs3JxpW9MMjKx_10baml_types7tracing6eventsINtB2_10TraceEventpE19new_raw_llm_requestB6_
FN:111,_RNvMNtNtCs3JxpW9MMjKx_10baml_types7tracing6eventsINtB2_10TraceEventpE20new_raw_llm_responseB6_
FN:262,_RNvMs1_NtNtCs3JxpW9MMjKx_10baml_types7tracing6eventsNtB5_8HTTPBody14as_serde_value
FN:241,_RNvMs1_NtNtCs3JxpW9MMjKx_10baml_types7tracing6eventsNtB5_8HTTPBody3new
FN:245,_RNvMs1_NtNtCs3JxpW9MMjKx_10baml_types7tracing6eventsNtB5_8HTTPBody3raw
FN:253,_RNvMs1_NtNtCs3JxpW9MMjKx_10baml_types7tracing6eventsNtB5_8HTTPBody4json
FN:249,_RNvMs1_NtNtCs3JxpW9MMjKx_10baml_types7tracing6eventsNtB5_8HTTPBody4text
FN:339,_RNvMs2_NtNtCs3JxpW9MMjKx_10baml_types7tracing6eventsNtB5_17LoggedLLMResponse11new_failure
FN:322,_RNvMs2_NtNtCs3JxpW9MMjKx_10baml_types7tracing6eventsNtB5_17LoggedLLMResponse11new_success
FN:148,_RNvMs_NtNtCs3JxpW9MMjKx_10baml_types7tracing6eventsINtB4_9TraceDatapE9type_nameB8_
FN:221,_RNvXs0_NtNtCs3JxpW9MMjKx_10baml_types7tracing6eventsNtB5_8HTTPBodyNtNtCs8dmkrYGpicx_4core3fmt5Debug3fmt
FNDA:0,_RNCNCNvMs1_NtNtCs3JxpW9MMjKx_10baml_types7tracing6eventsNtB9_8HTTPBody14as_serde_value00Bd_
FNDA:0,_RNCNCNvMs1_NtNtCs3JxpW9MMjKx_10baml_types7tracing6eventsNtB9_8HTTPBody14as_serde_values_00Bd_
FNDA:0,_RNCNvMs1_NtNtCs3JxpW9MMjKx_10baml_types7tracing6eventsNtB7_8HTTPBody14as_serde_value0Bb_
FNDA:0,_RNCNvMs1_NtNtCs3JxpW9MMjKx_10baml_types7tracing6eventsNtB7_8HTTPBody14as_serde_values_0Bb_
FNDA:0,_RNCNvMs1_NtNtCs3JxpW9MMjKx_10baml_types7tracing6eventsNtB7_8HTTPBody4json0Bb_
FNDA:0,_RNCNvMs1_NtNtCs3JxpW9MMjKx_10baml_types7tracing6eventsNtB7_8HTTPBody4text0Bb_
FNDA:0,_RNvMNtNtCs3JxpW9MMjKx_10baml_types7tracing6eventsINtB2_10TraceEventpE12new_set_tagsB6_
FNDA:0,_RNvMNtNtCs3JxpW9MMjKx_10baml_types7tracing6eventsINtB2_10TraceEventpE15new_llm_requestB6_
FNDA:0,_RNvMNtNtCs3JxpW9MMjKx_10baml_types7tracing6eventsINtB2_10TraceEventpE16new_function_endB6_
FNDA:0,_RNvMNtNtCs3JxpW9MMjKx_10baml_types7tracing6eventsINtB2_10TraceEventpE16new_llm_responseB6_
FNDA:0,_RNvMNtNtCs3JxpW9MMjKx_10baml_types7tracing6eventsINtB2_10TraceEventpE18from_existing_callB6_
FNDA:0,_RNvMNtNtCs3JxpW9MMjKx_10baml_types7tracing6eventsINtB2_10TraceEventpE18new_function_startB6_
FNDA:0,_RNvMNtNtCs3JxpW9MMjKx_10baml_types7tracing6eventsINtB2_10TraceEventpE19new_raw_llm_requestB6_
FNDA:0,_RNvMNtNtCs3JxpW9MMjKx_10baml_types7tracing6eventsINtB2_10TraceEventpE20new_raw_llm_responseB6_
FNDA:0,_RNvMs1_NtNtCs3JxpW9MMjKx_10baml_types7tracing6eventsNtB5_8HTTPBody14as_serde_value
FNDA:0,_RNvMs1_NtNtCs3JxpW9MMjKx_10baml_types7tracing6eventsNtB5_8HTTPBody3new
FNDA:0,_RNvMs1_NtNtCs3JxpW9MMjKx_10baml_types7tracing6eventsNtB5_8HTTPBody3raw
FNDA:0,_RNvMs1_NtNtCs3JxpW9MMjKx_10baml_types7tracing6eventsNtB5_8HTTPBody4json
FNDA:0,_RNvMs1_NtNtCs3JxpW9MMjKx_10baml_types7tracing6eventsNtB5_8HTTPBody4text
FNDA:0,_RNvMs2_NtNtCs3JxpW9MMjKx_10baml_types7tracing6eventsNtB5_17LoggedLLMResponse11new_failure
FNDA:0,_RNvMs2_NtNtCs3JxpW9MMjKx_10baml_types7tracing6eventsNtB5_17LoggedLLMResponse11new_success
FNDA:0,_RNvMs_NtNtCs3JxpW9MMjKx_10baml_types7tracing6eventsINtB4_9TraceDatapE9type_nameB8_
FNDA:0,_RNvXs0_NtNtCs3JxpW9MMjKx_10baml_types7tracing6eventsNtB5_8HTTPBodyNtNtCs8dmkrYGpicx_4core3fmt5Debug3fmt
FNF:23
FNH:0
DA:35,0
DA:36,0
DA:37,0
DA:38,0
DA:39,0
DA:40,0
DA:42,0
DA:43,0
DA:44,0
DA:45,0
DA:46,0
DA:47,0
DA:48,0
DA:49,0
DA:51,0
DA:52,0
DA:53,0
DA:54,0
DA:56,0
DA:57,0
DA:58,0
DA:59,0
DA:60,0
DA:61,0
DA:62,0
DA:63,0
DA:64,0
DA:65,0
DA:66,0
DA:67,0
DA:68,0
DA:69,0
DA:70,0
DA:71,0
DA:72,0
DA:73,0
DA:74,0
DA:76,0
DA:77,0
DA:78,0
DA:79,0
DA:80,0
DA:81,0
DA:82,0
DA:83,0
DA:84,0
DA:87,0
DA:88,0
DA:90,0
DA:91,0
DA:92,0
DA:93,0
DA:94,0
DA:95,0
DA:96,0
DA:98,0
DA:99,0
DA:100,0
DA:101,0
DA:102,0
DA:103,0
DA:104,0
DA:106,0
DA:107,0
DA:108,0
DA:109,0
DA:111,0
DA:112,0
DA:113,0
DA:114,0
DA:115,0
DA:116,0
DA:117,0
DA:148,0
DA:149,0
DA:150,0
DA:151,0
DA:152,0
DA:153,0
DA:154,0
DA:155,0
DA:156,0
DA:158,0
DA:221,0
DA:222,0
DA:224,0
DA:225,0
DA:226,0
DA:230,0
DA:231,0
DA:232,0
DA:236,0
DA:237,0
DA:241,0
DA:242,0
DA:243,0
DA:245,0
DA:246,0
DA:247,0
DA:249,0
DA:250,0
DA:251,0
DA:253,0
DA:254,0
DA:255,0
DA:256,0
DA:262,0
DA:263,0
DA:264,0
DA:265,0
DA:266,0
DA:267,0
DA:268,0
DA:269,0
DA:270,0
DA:271,0
DA:272,0
DA:273,0
DA:322,0
DA:323,0
DA:324,0
DA:325,0
DA:326,0
DA:327,0
DA:328,0
DA:329,0
DA:330,0
DA:331,0
DA:332,0
DA:333,0
DA:334,0
DA:335,0
DA:336,0
DA:337,0
DA:339,0
DA:340,0
DA:341,0
DA:342,0
DA:343,0
DA:344,0
DA:345,0
DA:346,0
DA:347,0
DA:348,0
DA:349,0
DA:350,0
DA:351,0
DA:352,0
DA:353,0
BRF:0
BRH:0
LF:156
LH:0
end_of_record
SF:/Users/rahul/code/rust/baml/engine/baml-lib/baml-types/src/value_expr.rs
FN:236,_RINvMs0_NtCs3JxpW9MMjKx_10baml_types10value_exprNtB6_8StringOr15resolve_api_keypEB8_
FN:228,_RINvMs0_NtCs3JxpW9MMjKx_10baml_types10value_exprNtB6_8StringOr7resolvepEB8_
FN:387,_RINvMs6_NtCs3JxpW9MMjKx_10baml_types10value_exprINtB6_10ResolvableNtB6_8StringOrpE11resolve_mappEB8_
FN:373,_RINvMs6_NtCs3JxpW9MMjKx_10baml_types10value_exprINtB6_10ResolvableNtB6_8StringOrpE12resolve_boolpEB8_
FN:401,_RINvMs6_NtCs3JxpW9MMjKx_10baml_types10value_exprINtB6_10ResolvableNtB6_8StringOrpE12resolve_nullpEB8_
FN:380,_RINvMs6_NtCs3JxpW9MMjKx_10baml_types10value_exprINtB6_10ResolvableNtB6_8StringOrpE13resolve_arraypEB8_
FN:408,_RINvMs6_NtCs3JxpW9MMjKx_10baml_types10value_exprINtB6_10ResolvableNtB6_8StringOrpE13resolve_serdeppEB8_
FN:366,_RINvMs6_NtCs3JxpW9MMjKx_10baml_types10value_exprINtB6_10ResolvableNtB6_8StringOrpE14resolve_stringpEB8_
FN:394,_RINvMs6_NtCs3JxpW9MMjKx_10baml_types10value_exprINtB6_10ResolvableNtB6_8StringOrpE15resolve_numericpEB8_
FN:418,_RINvMs6_NtCs3JxpW9MMjKx_10baml_types10value_exprINtB6_10ResolvableNtB6_8StringOrpE7resolvepEB8_
FN:28,_RINvXININtCs3JxpW9MMjKx_10baml_types10value_expr0ppEINtB6_10ResolvableppENtNtCs8dmkrYGpicx_4core4hash4Hash4hashpEB8_
FN:389,_RNCINvMs6_NtCs3JxpW9MMjKx_10baml_types10value_exprINtB8_10ResolvableNtB8_8StringOrpE11resolve_mappE0Ba_
FN:421,_RNCINvMs6_NtCs3JxpW9MMjKx_10baml_types10value_exprINtB8_10ResolvableNtB8_8StringOrpE7resolvepE0Ba_
FN:435,_RNCINvMs6_NtCs3JxpW9MMjKx_10baml_types10value_exprINtB8_10ResolvableNtB8_8StringOrpE7resolvepEs0_0Ba_
FN:442,_RNCINvMs6_NtCs3JxpW9MMjKx_10baml_types10value_exprINtB8_10ResolvableNtB8_8StringOrpE7resolvepEs1_0Ba_
FN:428,_RNCINvMs6_NtCs3JxpW9MMjKx_10baml_types10value_exprINtB8_10ResolvableNtB8_8StringOrpE7resolvepEs_0Ba_
FN:442,_RNCNCINvMs6_NtCs3JxpW9MMjKx_10baml_types10value_exprINtBa_10ResolvableNtBa_8StringOrpE7resolvepEs1_00Bc_
FN:270,_RNCNvMs2_NtCs3JxpW9MMjKx_10baml_types10value_exprINtB7_10ResolvableNtB7_8StringOrpE12without_meta0B9_
FN:282,_RNCNvMs2_NtCs3JxpW9MMjKx_10baml_types10value_exprINtB7_10ResolvableNtB7_8StringOrpE12without_metas0_0B9_
FN:274,_RNCNvMs2_NtCs3JxpW9MMjKx_10baml_types10value_exprINtB7_10ResolvableNtB7_8StringOrpE12without_metas_0B9_
FN:467,_RNCNvMs6_NtCs3JxpW9MMjKx_10baml_types10value_exprINtB7_10ResolvableNtB7_8StringOrpE17required_env_vars0B9_
FN:521,_RNCNvMs8_NtCs3JxpW9MMjKx_10baml_types10value_exprNtNtB9_10baml_value9BamlValue13to_resolvable0B9_
FN:528,_RNCNvMs8_NtCs3JxpW9MMjKx_10baml_types10value_exprNtNtB9_10baml_value9BamlValue13to_resolvables_0B9_
FN:177,_RNCNvMs_NtCs3JxpW9MMjKx_10baml_types10value_exprINtB6_10ResolvableppE4type0B8_
FN:190,_RNCNvMs_NtCs3JxpW9MMjKx_10baml_types10value_exprINtB6_10ResolvableppE4types_0B8_
FN:590,_RNCNvMsb_NtCs3JxpW9MMjKx_10baml_types10value_exprNtB7_20ApiKeyWithProvenance6render0B9_
FN:306,_RNCNvXs3_NtCs3JxpW9MMjKx_10baml_types10value_exprNtB7_17EvaluationContextNtB7_9GetEnvVar11get_env_var0B9_
FN:495,_RNCNvXs7_NtCs3JxpW9MMjKx_10baml_types10value_exprNtNtCslLp4NcXhfgI_10serde_json5value5ValueINtNtCs8dmkrYGpicx_4core7convert7TryFromINtB7_10ResolvableNtNtCs7Lutq36SewB_5alloc6string6StringuEE8try_from0B9_
FN:501,_RNCNvXs7_NtCs3JxpW9MMjKx_10baml_types10value_exprNtNtCslLp4NcXhfgI_10serde_json5value5ValueINtNtCs8dmkrYGpicx_4core7convert7TryFromINtB7_10ResolvableNtNtCs7Lutq36SewB_5alloc6string6StringuEE8try_froms_0B9_
FN:209,_RNvMs0_NtCs3JxpW9MMjKx_10baml_types10value_exprNtB5_8StringOr17required_env_vars
FN:217,_RNvMs0_NtCs3JxpW9MMjKx_10baml_types10value_exprNtB5_8StringOr8maybe_eq
FN:264,_RNvMs2_NtCs3JxpW9MMjKx_10baml_types10value_exprINtB5_10ResolvableNtB5_8StringOrpE12without_metaB7_
FN:328,_RNvMs4_NtCs3JxpW9MMjKx_10baml_types10value_exprNtB5_17EvaluationContext3new
FN:346,_RNvMs6_NtCs3JxpW9MMjKx_10baml_types10value_exprINtB5_10ResolvableNtB5_8StringOrpE13as_static_strB7_
FN:454,_RNvMs6_NtCs3JxpW9MMjKx_10baml_types10value_exprINtB5_10ResolvableNtB5_8StringOrpE17required_env_varsB7_
FN:510,_RNvMs8_NtCs3JxpW9MMjKx_10baml_types10value_exprNtNtB7_10baml_value9BamlValue13to_resolvable
FN:539,_RNvMs9_NtCs3JxpW9MMjKx_10baml_types10value_exprNtNtB7_5media9BamlMedia13to_resolvable
FN:150,_RNvMs_NtCs3JxpW9MMjKx_10baml_types10value_exprINtB4_10ResolvableppE10as_numericB6_
FN:85,_RNvMs_NtCs3JxpW9MMjKx_10baml_types10value_exprINtB4_10ResolvableppE10into_arrayB6_
FN:108,_RNvMs_NtCs3JxpW9MMjKx_10baml_types10value_exprINtB4_10ResolvableppE12into_numericB6_
FN:157,_RNvMs_NtCs3JxpW9MMjKx_10baml_types10value_exprINtB4_10ResolvableppE4metaB6_
FN:169,_RNvMs_NtCs3JxpW9MMjKx_10baml_types10value_exprINtB4_10ResolvableppE4typeB6_
FN:136,_RNvMs_NtCs3JxpW9MMjKx_10baml_types10value_exprINtB4_10ResolvableppE6as_mapB6_
FN:115,_RNvMs_NtCs3JxpW9MMjKx_10baml_types10value_exprINtB4_10ResolvableppE6as_strB6_
FN:143,_RNvMs_NtCs3JxpW9MMjKx_10baml_types10value_exprINtB4_10ResolvableppE7as_boolB6_
FN:122,_RNvMs_NtCs3JxpW9MMjKx_10baml_types10value_exprINtB4_10ResolvableppE7as_nullB6_
FN:129,_RNvMs_NtCs3JxpW9MMjKx_10baml_types10value_exprINtB4_10ResolvableppE8as_arrayB6_
FN:92,_RNvMs_NtCs3JxpW9MMjKx_10baml_types10value_exprINtB4_10ResolvableppE8into_mapB6_
FN:78,_RNvMs_NtCs3JxpW9MMjKx_10baml_types10value_exprINtB4_10ResolvableppE8into_strB6_
FN:101,_RNvMs_NtCs3JxpW9MMjKx_10baml_types10value_exprINtB4_10ResolvableppE9into_boolB6_
FN:584,_RNvMsb_NtCs3JxpW9MMjKx_10baml_types10value_exprNtB5_20ApiKeyWithProvenance6render
FN:251,_RNvXs1_NtCs3JxpW9MMjKx_10baml_types10value_exprNtB5_8StringOrNtNtCs8dmkrYGpicx_4core3fmt7Display3fmt
FN:302,_RNvXs3_NtCs3JxpW9MMjKx_10baml_types10value_exprNtB5_17EvaluationContextNtB5_9GetEnvVar11get_env_var
FN:319,_RNvXs3_NtCs3JxpW9MMjKx_10baml_types10value_exprNtB5_17EvaluationContextNtB5_9GetEnvVar25set_allow_missing_env_var
FN:337,_RNvXs5_NtCs3JxpW9MMjKx_10baml_types10value_exprNtB5_17EvaluationContextNtNtCs8dmkrYGpicx_4core7default7Default7default
FN:481,_RNvXs7_NtCs3JxpW9MMjKx_10baml_types10value_exprNtNtCslLp4NcXhfgI_10serde_json5value5ValueINtNtCs8dmkrYGpicx_4core7convert7TryFromINtB5_10ResolvableNtNtCs7Lutq36SewB_5alloc6string6StringuEE8try_from
FN:572,_RNvXsa_NtCs3JxpW9MMjKx_10baml_types10value_exprNtB5_20ApiKeyWithProvenanceNtNtCs8dmkrYGpicx_4core3fmt5Debug3fmt
FNDA:0,_RINvMs0_NtCs3JxpW9MMjKx_10baml_types10value_exprNtB6_8StringOr15resolve_api_keypEB8_
FNDA:0,_RINvMs0_NtCs3JxpW9MMjKx_10baml_types10value_exprNtB6_8StringOr7resolvepEB8_
FNDA:0,_RINvMs6_NtCs3JxpW9MMjKx_10baml_types10value_exprINtB6_10ResolvableNtB6_8StringOrpE11resolve_mappEB8_
FNDA:0,_RINvMs6_NtCs3JxpW9MMjKx_10baml_types10value_exprINtB6_10ResolvableNtB6_8StringOrpE12resolve_boolpEB8_
FNDA:0,_RINvMs6_NtCs3JxpW9MMjKx_10baml_types10value_exprINtB6_10ResolvableNtB6_8StringOrpE12resolve_nullpEB8_
FNDA:0,_RINvMs6_NtCs3JxpW9MMjKx_10baml_types10value_exprINtB6_10ResolvableNtB6_8StringOrpE13resolve_arraypEB8_
FNDA:0,_RINvMs6_NtCs3JxpW9MMjKx_10baml_types10value_exprINtB6_10ResolvableNtB6_8StringOrpE13resolve_serdeppEB8_
FNDA:0,_RINvMs6_NtCs3JxpW9MMjKx_10baml_types10value_exprINtB6_10ResolvableNtB6_8StringOrpE14resolve_stringpEB8_
FNDA:0,_RINvMs6_NtCs3JxpW9MMjKx_10baml_types10value_exprINtB6_10ResolvableNtB6_8StringOrpE15resolve_numericpEB8_
FNDA:0,_RINvMs6_NtCs3JxpW9MMjKx_10baml_types10value_exprINtB6_10ResolvableNtB6_8StringOrpE7resolvepEB8_
FNDA:0,_RINvXININtCs3JxpW9MMjKx_10baml_types10value_expr0ppEINtB6_10ResolvableppENtNtCs8dmkrYGpicx_4core4hash4Hash4hashpEB8_
FNDA:0,_RNCINvMs6_NtCs3JxpW9MMjKx_10baml_types10value_exprINtB8_10ResolvableNtB8_8StringOrpE11resolve_mappE0Ba_
FNDA:0,_RNCINvMs6_NtCs3JxpW9MMjKx_10baml_types10value_exprINtB8_10ResolvableNtB8_8StringOrpE7resolvepE0Ba_
FNDA:0,_RNCINvMs6_NtCs3JxpW9MMjKx_10baml_types10value_exprINtB8_10ResolvableNtB8_8StringOrpE7resolvepEs0_0Ba_
FNDA:0,_RNCINvMs6_NtCs3JxpW9MMjKx_10baml_types10value_exprINtB8_10ResolvableNtB8_8StringOrpE7resolvepEs1_0Ba_
FNDA:0,_RNCINvMs6_NtCs3JxpW9MMjKx_10baml_types10value_exprINtB8_10ResolvableNtB8_8StringOrpE7resolvepEs_0Ba_
FNDA:0,_RNCNCINvMs6_NtCs3JxpW9MMjKx_10baml_types10value_exprINtBa_10ResolvableNtBa_8StringOrpE7resolvepEs1_00Bc_
FNDA:0,_RNCNvMs2_NtCs3JxpW9MMjKx_10baml_types10value_exprINtB7_10ResolvableNtB7_8StringOrpE12without_meta0B9_
FNDA:0,_RNCNvMs2_NtCs3JxpW9MMjKx_10baml_types10value_exprINtB7_10ResolvableNtB7_8StringOrpE12without_metas0_0B9_
FNDA:0,_RNCNvMs2_NtCs3JxpW9MMjKx_10baml_types10value_exprINtB7_10ResolvableNtB7_8StringOrpE12without_metas_0B9_
FNDA:0,_RNCNvMs6_NtCs3JxpW9MMjKx_10baml_types10value_exprINtB7_10ResolvableNtB7_8StringOrpE17required_env_vars0B9_
FNDA:0,_RNCNvMs8_NtCs3JxpW9MMjKx_10baml_types10value_exprNtNtB9_10baml_value9BamlValue13to_resolvable0B9_
FNDA:0,_RNCNvMs8_NtCs3JxpW9MMjKx_10baml_types10value_exprNtNtB9_10baml_value9BamlValue13to_resolvables_0B9_
FNDA:0,_RNCNvMs_NtCs3JxpW9MMjKx_10baml_types10value_exprINtB6_10ResolvableppE4type0B8_
FNDA:0,_RNCNvMs_NtCs3JxpW9MMjKx_10baml_types10value_exprINtB6_10ResolvableppE4types_0B8_
FNDA:0,_RNCNvMsb_NtCs3JxpW9MMjKx_10baml_types10value_exprNtB7_20ApiKeyWithProvenance6render0B9_
FNDA:0,_RNCNvXs3_NtCs3JxpW9MMjKx_10baml_types10value_exprNtB7_17EvaluationContextNtB7_9GetEnvVar11get_env_var0B9_
FNDA:0,_RNCNvXs7_NtCs3JxpW9MMjKx_10baml_types10value_exprNtNtCslLp4NcXhfgI_10serde_json5value5ValueINtNtCs8dmkrYGpicx_4core7convert7TryFromINtB7_10ResolvableNtNtCs7Lutq36SewB_5alloc6string6StringuEE8try_from0B9_
FNDA:0,_RNCNvXs7_NtCs3JxpW9MMjKx_10baml_types10value_exprNtNtCslLp4NcXhfgI_10serde_json5value5ValueINtNtCs8dmkrYGpicx_4core7convert7TryFromINtB7_10ResolvableNtNtCs7Lutq36SewB_5alloc6string6StringuEE8try_froms_0B9_
FNDA:0,_RNvMs0_NtCs3JxpW9MMjKx_10baml_types10value_exprNtB5_8StringOr17required_env_vars
FNDA:0,_RNvMs0_NtCs3JxpW9MMjKx_10baml_types10value_exprNtB5_8StringOr8maybe_eq
FNDA:0,_RNvMs2_NtCs3JxpW9MMjKx_10baml_types10value_exprINtB5_10ResolvableNtB5_8StringOrpE12without_metaB7_
FNDA:0,_RNvMs4_NtCs3JxpW9MMjKx_10baml_types10value_exprNtB5_17EvaluationContext3new
FNDA:0,_RNvMs6_NtCs3JxpW9MMjKx_10baml_types10value_exprINtB5_10ResolvableNtB5_8StringOrpE13as_static_strB7_
FNDA:0,_RNvMs6_NtCs3JxpW9MMjKx_10baml_types10value_exprINtB5_10ResolvableNtB5_8StringOrpE17required_env_varsB7_
FNDA:0,_RNvMs8_NtCs3JxpW9MMjKx_10baml_types10value_exprNtNtB7_10baml_value9BamlValue13to_resolvable
FNDA:0,_RNvMs9_NtCs3JxpW9MMjKx_10baml_types10value_exprNtNtB7_5media9BamlMedia13to_resolvable
FNDA:0,_RNvMs_NtCs3JxpW9MMjKx_10baml_types10value_exprINtB4_10ResolvableppE10as_numericB6_
FNDA:0,_RNvMs_NtCs3JxpW9MMjKx_10baml_types10value_exprINtB4_10ResolvableppE10into_arrayB6_
FNDA:0,_RNvMs_NtCs3JxpW9MMjKx_10baml_types10value_exprINtB4_10ResolvableppE12into_numericB6_
FNDA:0,_RNvMs_NtCs3JxpW9MMjKx_10baml_types10value_exprINtB4_10ResolvableppE4metaB6_
FNDA:0,_RNvMs_NtCs3JxpW9MMjKx_10baml_types10value_exprINtB4_10ResolvableppE4typeB6_
FNDA:0,_RNvMs_NtCs3JxpW9MMjKx_10baml_types10value_exprINtB4_10ResolvableppE6as_mapB6_
FNDA:0,_RNvMs_NtCs3JxpW9MMjKx_10baml_types10value_exprINtB4_10ResolvableppE6as_strB6_
FNDA:0,_RNvMs_NtCs3JxpW9MMjKx_10baml_types10value_exprINtB4_10ResolvableppE7as_boolB6_
FNDA:0,_RNvMs_NtCs3JxpW9MMjKx_10baml_types10value_exprINtB4_10ResolvableppE7as_nullB6_
FNDA:0,_RNvMs_NtCs3JxpW9MMjKx_10baml_types10value_exprINtB4_10ResolvableppE8as_arrayB6_
FNDA:0,_RNvMs_NtCs3JxpW9MMjKx_10baml_types10value_exprINtB4_10ResolvableppE8into_mapB6_
FNDA:0,_RNvMs_NtCs3JxpW9MMjKx_10baml_types10value_exprINtB4_10ResolvableppE8into_strB6_
FNDA:0,_RNvMs_NtCs3JxpW9MMjKx_10baml_types10value_exprINtB4_10ResolvableppE9into_boolB6_
FNDA:0,_RNvMsb_NtCs3JxpW9MMjKx_10baml_types10value_exprNtB5_20ApiKeyWithProvenance6render
FNDA:0,_RNvXs1_NtCs3JxpW9MMjKx_10baml_types10value_exprNtB5_8StringOrNtNtCs8dmkrYGpicx_4core3fmt7Display3fmt
FNDA:0,_RNvXs3_NtCs3JxpW9MMjKx_10baml_types10value_exprNtB5_17EvaluationContextNtB5_9GetEnvVar11get_env_var
FNDA:0,_RNvXs3_NtCs3JxpW9MMjKx_10baml_types10value_exprNtB5_17EvaluationContextNtB5_9GetEnvVar25set_allow_missing_env_var
FNDA:0,_RNvXs5_NtCs3JxpW9MMjKx_10baml_types10value_exprNtB5_17EvaluationContextNtNtCs8dmkrYGpicx_4core7default7Default7default
FNDA:0,_RNvXs7_NtCs3JxpW9MMjKx_10baml_types10value_exprNtNtCslLp4NcXhfgI_10serde_json5value5ValueINtNtCs8dmkrYGpicx_4core7convert7TryFromINtB5_10ResolvableNtNtCs7Lutq36SewB_5alloc6string6StringuEE8try_from
FNDA:0,_RNvXsa_NtCs3JxpW9MMjKx_10baml_types10value_exprNtB5_20ApiKeyWithProvenanceNtNtCs8dmkrYGpicx_4core3fmt5Debug3fmt
FNF:57
FNH:0
DA:28,0
DA:29,0
DA:30,0
DA:31,0
DA:32,0
DA:33,0
DA:34,0
DA:35,0
DA:36,0
DA:37,0
DA:40,0
DA:41,0
DA:42,0
DA:43,0
DA:44,0
DA:45,0
DA:46,0
DA:47,0
DA:48,0
DA:49,0
DA:50,0
DA:51,0
DA:52,0
DA:53,0
DA:54,0
DA:55,0
DA:56,0
DA:57,0
DA:58,0
DA:59,0
DA:60,0
DA:61,0
DA:62,0
DA:63,0
DA:65,0
DA:66,0
DA:67,0
DA:68,0
DA:69,0
DA:70,0
DA:71,0
DA:72,0
DA:74,0
DA:78,0
DA:79,0
DA:80,0
DA:81,0
DA:83,0
DA:85,0
DA:86,0
DA:87,0
DA:88,0
DA:90,0
DA:92,0
DA:93,0
DA:94,0
DA:95,0
DA:96,0
DA:97,0
DA:99,0
DA:101,0
DA:102,0
DA:103,0
DA:104,0
DA:106,0
DA:108,0
DA:109,0
DA:110,0
DA:111,0
DA:113,0
DA:115,0
DA:116,0
DA:117,0
DA:118,0
DA:120,0
DA:122,0
DA:123,0
DA:124,0
DA:125,0
DA:127,0
DA:129,0
DA:130,0
DA:131,0
DA:132,0
DA:134,0
DA:136,0
DA:137,0
DA:138,0
DA:139,0
DA:141,0
DA:143,0
DA:144,0
DA:145,0
DA:146,0
DA:148,0
DA:150,0
DA:151,0
DA:152,0
DA:153,0
DA:155,0
DA:157,0
DA:158,0
DA:159,0
DA:160,0
DA:161,0
DA:162,0
DA:163,0
DA:164,0
DA:165,0
DA:167,0
DA:169,0
DA:170,0
DA:171,0
DA:172,0
DA:173,0
DA:174,0
DA:175,0
DA:176,0
DA:177,0
DA:178,0
DA:179,0
DA:180,0
DA:181,0
DA:182,0
DA:183,0
DA:184,0
DA:187,0
DA:188,0
DA:189,0
DA:190,0
DA:191,0
DA:192,0
DA:193,0
DA:195,0
DA:196,0
DA:198,0
DA:209,0
DA:210,0
DA:211,0
DA:212,0
DA:213,0
DA:215,0
DA:217,0
DA:218,0
DA:219,0
DA:220,0
DA:222,0
DA:223,0
DA:224,0
DA:226,0
DA:228,0
DA:229,0
DA:230,0
DA:231,0
DA:232,0
DA:234,0
DA:236,0
DA:237,0
DA:238,0
DA:239,0
DA:240,0
DA:241,0
DA:243,0
DA:244,0
DA:245,0
DA:246,0
DA:247,0
DA:251,0
DA:252,0
DA:253,0
DA:254,0
DA:255,0
DA:257,0
DA:264,0
DA:265,0
DA:266,0
DA:267,0
DA:268,0
DA:269,0
DA:270,0
DA:272,0
DA:273,0
DA:274,0
DA:275,0
DA:276,0
DA:277,0
DA:278,0
DA:279,0
DA:280,0
DA:281,0
DA:282,0
DA:283,0
DA:284,0
DA:285,0
DA:286,0
DA:288,0
DA:302,0
DA:303,0
DA:304,0
DA:305,0
DA:306,0
DA:308,0
DA:310,0
DA:311,0
DA:313,0
DA:317,0
DA:319,0
DA:320,0
DA:321,0
DA:322,0
DA:323,0
DA:324,0
DA:328,0
DA:329,0
DA:330,0
DA:331,0
DA:332,0
DA:333,0
DA:337,0
DA:338,0
DA:339,0
DA:340,0
DA:341,0
DA:342,0
DA:346,0
DA:347,0
DA:348,0
DA:349,0
DA:350,0
DA:352,0
DA:353,0
DA:355,0
DA:356,0
DA:357,0
DA:358,0
DA:359,0
DA:360,0
DA:361,0
DA:364,0
DA:366,0
DA:367,0
DA:368,0
DA:369,0
DA:371,0
DA:373,0
DA:374,0
DA:375,0
DA:376,0
DA:378,0
DA:380,0
DA:381,0
DA:382,0
DA:383,0
DA:385,0
DA:387,0
DA:388,0
DA:389,0
DA:390,0
DA:392,0
DA:394,0
DA:395,0
DA:396,0
DA:397,0
DA:399,0
DA:401,0
DA:402,0
DA:403,0
DA:404,0
DA:406,0
DA:408,0
DA:409,0
DA:410,0
DA:411,0
DA:412,0
DA:413,0
DA:415,0
DA:418,0
DA:419,0
DA:420,0
DA:421,0
DA:423,0
DA:424,0
DA:425,0
DA:426,0
DA:427,0
DA:428,0
DA:429,0
DA:430,0
DA:432,0
DA:433,0
DA:434,0
DA:435,0
DA:436,0
DA:437,0
DA:439,0
DA:440,0
DA:441,0
DA:442,0
DA:443,0
DA:444,0
DA:445,0
DA:446,0
DA:447,0
DA:448,0
DA:450,0
DA:452,0
DA:454,0
DA:455,0
DA:456,0
DA:458,0
DA:459,0
DA:460,0
DA:461,0
DA:462,0
DA:463,0
DA:464,0
DA:465,0
DA:466,0
DA:467,0
DA:468,0
DA:469,0
DA:473,0
DA:474,0
DA:481,0
DA:482,0
DA:483,0
DA:484,0
DA:485,0
DA:487,0
DA:488,0
DA:489,0
DA:490,0
DA:491,0
DA:493,0
DA:494,0
DA:495,0
DA:496,0
DA:498,0
DA:499,0
DA:500,0
DA:501,0
DA:502,0
DA:504,0
DA:506,0
DA:510,0
DA:511,0
DA:512,0
DA:513,0
DA:515,0
DA:516,0
DA:517,0
DA:518,0
DA:519,0
DA:520,0
DA:521,0
DA:522,0
DA:523,0
DA:525,0
DA:526,0
DA:527,0
DA:528,0
DA:529,0
DA:530,0
DA:532,0
DA:533,0
DA:535,0
DA:539,0
DA:540,0
DA:541,0
DA:542,0
DA:543,0
DA:544,0
DA:545,0
DA:546,0
DA:547,0
DA:548,0
DA:549,0
DA:550,0
DA:551,0
DA:552,0
DA:553,0
DA:555,0
DA:556,0
DA:557,0
DA:558,0
DA:559,0
DA:560,0
DA:572,0
DA:573,0
DA:574,0
DA:575,0
DA:576,0
DA:577,0
DA:584,0
DA:585,0
DA:586,0
DA:588,0
DA:589,0
DA:590,0
DA:591,0
DA:592,0
DA:594,0
BRF:0
BRH:0
LF:421
LH:0
end_of_record